(dp1
S'output'
p2
S'missing "pass" in view'
p3
sS'layer'
p4
S'ParserContainer'
p5
sS'code'
p6
S'response.write(\'<!DOCTYPE html>\\r\\n<html>\\r\\n    <head class="width-percent-100"> \\r\\n        <meta charset="utf-8">         \\r\\n        <meta name="viewport" content="width=device-width, initial-scale=1.0">         \\r\\n        <meta name="generator" content="Script Eden ( http://scripteden.net/ ) Template Builder v2.0.0">         \\r\\n        <!--pageMeta-->         \\r\\n        <!-- Loading Bootstrap -->\\r\\n        <link rel="stylesheet" href="\', escape=False)\nresponse.write(URL(\'static\',\'extra/bootstrap/css/bootstrap.css\'))\nresponse.write(\'"/>\\r\\n        <!-- Loading Flat UI -->\\r\\n        <link rel="stylesheet" href="\', escape=False)\nresponse.write(URL(\'static\',\'extra/css/flat-ui.css\'))\nresponse.write(\'"/>\\r\\n        <link rel="stylesheet" href="\', escape=False)\nresponse.write(URL(\'static\',\'extra/css/style.css\'))\nresponse.write(\'"/>\\r\\n        <link rel="stylesheet" href="\', escape=False)\nresponse.write(URL(\'static\',\'extra/css/style.complete.css\'))\nresponse.write(\'"/>\\r\\n        <!-- HTML5 shim, for IE6-8 support of HTML5 elements. All other JS at the end of file. -->         \\r\\n        <!--[if lt IE 9]>\\r\\n      <script src="\', escape=False)\nresponse.write(URL(\'static\',\'extra/js/html5shiv.js\'))\nresponse.write(\'"></script>\\r\\n      <script src="\', escape=False)\nresponse.write(URL(\'static\',\'extra/js/respond.min.js\'))\nresponse.write(\'"></script>\\r\\n    <![endif]-->         \\r\\n        <!--headerIncludes-->         \\r\\n        <style type="text/css">\\r\\n            .paragraph-logo\\r\\n            {\\r\\n            font-size: 25px;\\r\\n            }\\r\\n\\r\\n</style>\\r\\n    </head>     \\r\\n    <body class="width-percent-100">\\r\\n        <div id="page" class="page backgrounding width-percent-100"> \\r\\n            <header class="item header margin-top-0  backgrounding width-percent-100" id="header9">\\r\\n                <div class="wrapper  header-transparent"> \\r\\n                    <div class="container">\\r\\n                        <nav role="navigation" class="navbar plain margin-top-20" style="display: block;"> \\r\\n                            <div class="navbar-header"> \\r\\n                                <button data-target="#navbar-collapse-02" data-toggle="collapse" class="navbar-toggle" type="button"> \\r\\n                                    <span class="sr-only">Toggle navigation</span> \\r\\n                                </button>                                 \\r\\n                                <a href="#" class="navbar-brand" style="line-height: 60px; padding-left: 0px;">\\r\\n                                    <img alt="" src="\', escape=False)\nresponse.write(URL(\'static\',\'extra/images/icons/brush.svg\'))\nresponse.write(\'" style="height: 60px;">                                                                                                                                                                                                                                                                                                                                                                                                                                                                                                                                                                                                                                                                                                                                                                                                                                                                                                                                                                                                                                                                                                                                                                                                                                                                                                                                                                                                                                                                                                                                                                                                                                                                                                                                                                                                                                                                                                                                                                                                                                                                                                                                                                                                                                                                                                                                                                                                                                                                                                                                                                                                                                                                                                                                                                                                                                                                                                                                                                                                                                                                                                                                                                                                                                                                                                                                                                                                                                                                                                                                                                                                                                                                                                                                                                                                                                                                                                                                                                                                                                                                                                                                                                                                                                                                                                                                                                                                                                                                                                                                                                                                                                                                                                                                                                                                                                                                                                                                                     TideNow\\r\\n                                </a>                                 \\r\\n                            </div>                             \\r\\n                            <div id="navbar-collapse-02" class="collapse navbar-collapse"> \\r\\n                                <ul class="nav navbar-nav navbar-right"> \\r\\n                                    <li class="active propClone">\\r\\n                                        <a href="#">Home</a>\\r\\n                                    </li>                                     \\r\\n                                    <li class="propClone">\\r\\n                                        <a href="#">Contact</a>\\r\\n                                    </li>                                     \\r\\n                                </ul>                                 \\r\\n                            </div>\\r\\n                            <p style="display: block;" class="paragraph-logo">Get instant deals on select local restaurants.</p>\\r\\n                            <!-- /.navbar-collapse -->                             \\r\\n                        </nav>                         \\r\\n                        <!-- /.row -->\\r\\n                    </div>\\r\\n                    <!-- /.container -->                     \\r\\n                </div>\\r\\n                <img src="\', escape=False)\nresponse.write(URL(\'static\',\'extra/static/header.jpg\'))\nresponse.write(\'" class="background-fixed" />\\r\\n                <!-- /.wrapper -->                 \\r\\n            </header>\\r\\n            <!-- /.item -->\\r\\n            <!-- Start Footer 1-4 -->             \\r\\n            <!--// END Footer 1-4 -->\\r\\n            <div class="item portfolio" id="portfolio2"> \\r\\n                <div class="container"> \\r\\n                    <!-- /.row -->\\r\\n                    \', escape=False)\nfor i in range(len(allRest)):\n    response.write(\'\\r\\n                    \', escape=False)\n    if i%4==0 and i!=len(allRest)-1:\n        response.write(\'\\r\\n                    <div class="row margin-bottom-20"> \', escape=False)\n        pass\n    response.write(\'\\r\\n                        <div class="col-md-3 col-sm-6 col-xs-6"> \\r\\n                            <a href="\', escape=False)\n    response.write(URL(\'restaurant\',args=[allRest[i].name.replace(\' \',\'-\')]))\n    response.write(\'" class="over img-rounded">\\r\\n                                <img src="\', escape=False)\n    response.write(URL(\'static\',allRest[i].logoURL))\n    response.write(\'" class="width-100" alt="" id="testImage">\\r\\n                                <div class="">\\r\\n                                    <p class="client-name" style="display: block;">\', escape=False)\n    response.write(allRest[i].name)\n    response.write(\'</p>\\r\\n                                    <p class="client-details" style="display: block;">\', escape=False)\n    response.write(allRest[i].description)\n    response.write(\'<br></p>\\r\\n                                    <p class="client-description" style="display: block;"><span id="time" class="time-to-the-left">10:43</span> \', escape=False)\n    if allRest[i].discount!=0:\n        response.write(\'Left for \', escape=False)\n        response.write(round(allRest[i].discount,2))\n        response.write(\'% Off</p>\\r\\n                                </div>\\r\\n                            </a>                             \\r\\n                        </div>\\r\\n                    \', escape=False)\n        if i%4==3 or i==len(allRest)-1:\n            response.write(\'\\r\\n                    </div>\', escape=False)\n            pass\n        response.write(\'\\r\\n                    \', escape=False)\n        pass\n    response.write(\'\\r\\n                </div>\\r\\n                <!-- /.container -->                 \\r\\n            </div>\\r\\n            <!-- /.item -->\\r\\n            <!-- Start Content Block 1-6 -->             \\r\\n            <!-- // End Content Block 1-6 -->\\r\\n            <!-- Start Footer Copyright Bar -->             \\r\\n            <!--// END Footer Copyright Bar -->\\r\\n        </div>\\r\\n        <div class="copyright-bar bg-black"> \\r\\n            <div class="container"> \\r\\n                <div class="editContent" style="">\\r\\n                    <p class="pull-left small"> \\r\\n\\t\\xc2\\xa9 TideNow - Elegant deals for everyone.</p>\\r\\n                </div>                 \\r\\n                <div class="editContent" style="">\\r\\n                    <p class="pull-right small"> \\r\\n\\tFrom deals to meals.</p>\\r\\n                </div>                 \\r\\n            </div>             \\r\\n        </div>         \\r\\n        <!-- /#page -->         \\r\\n        <!-- Load JS here for greater good =============================-->\\r\\n        <script src="https://ajax.googleapis.com/ajax/libs/jquery/1.11.3/jquery.min.js"></script>\\r\\n        <script>\\r\\nfunction startTimer(duration, display) {\\r\\n    var timer = duration, minutes, seconds;\\r\\n    setInterval(function () {\\r\\n        minutes = parseInt(timer / 60, 10);\\r\\n        seconds = parseInt(timer % 60, 10);\\r\\n\\r\\n        minutes = minutes < 10 ? "0" + minutes : minutes;\\r\\n        seconds = seconds < 10 ? "0" + seconds : seconds;\\r\\n\\r\\n        display.textContent = minutes + ":" + seconds;\\r\\n\\r\\n        if (--timer < 0) {\\r\\n            timer = duration;\\r\\n        }\\r\\n    }, 1000);\\r\\n}\\r\\n\\r\\nwindow.onload = function () {\\r\\n    var randomMinute = Math.floor(Math.random() * 30) + 10;\\r\\n    var randomSecond = Math.floor(Math.random() * 59);\\r\\n\\tvar fiveMinutes = randomSecond * randomMinute,\\r\\n\\tdisplay = document.querySelector(\\\'#time\\\');\\r\\n\\tstartTimer(fiveMinutes, display)\\r\\n};\\r\\n        </script>\\r\\n    </body>\\r\\n</html>\', escape=False)'
p7
sS'snapshot'
p8
(dp9
S'exception'
p10
(dp11
S'__module__'
p12
S"'gluon.rocket'"
p13
sS'__getslice__'
p14
S"<method-wrapper '__getslice__' of SocketClosed object>"
p15
sS'__str__'
p16
S"<method-wrapper '__str__' of SocketClosed object>"
p17
sS'__reduce__'
p18
S'<built-in method __reduce__ of SocketClosed object>'
p19
sS'__dict__'
p20
S'{}'
p21
sS'__sizeof__'
p22
S'<built-in method __sizeof__ of SocketClosed object>'
p23
sS'__weakref__'
p24
S'None'
p25
sS'__init__'
p26
S"<method-wrapper '__init__' of SocketClosed object>"
p27
sS'__setattr__'
p28
S"<method-wrapper '__setattr__' of SocketClosed object>"
p29
sS'__reduce_ex__'
p30
S'<built-in method __reduce_ex__ of SocketClosed object>'
p31
sS'__new__'
p32
S'<built-in method __new__ of type object>'
p33
sS'__format__'
p34
S'<built-in method __format__ of SocketClosed object>'
p35
sS'__class__'
p36
S"<class 'gluon.rocket.SocketClosed'>"
p37
sS'__doc__'
p38
S"'Exception for when a socket is closed by the client.'"
p39
sS'__getitem__'
p40
S"<method-wrapper '__getitem__' of SocketClosed object>"
p41
sS'__setstate__'
p42
S'<built-in method __setstate__ of SocketClosed object>'
p43
sS'__getattribute__'
p44
S"<method-wrapper '__getattribute__' of SocketClosed object>"
p45
sS'args'
p46
S"('Client closed socket.',)"
p47
sS'__subclasshook__'
p48
S'<built-in method __subclasshook__ of type object>'
p49
sS'__unicode__'
p50
S'<built-in method __unicode__ of SocketClosed object>'
p51
sS'__delattr__'
p52
S"<method-wrapper '__delattr__' of SocketClosed object>"
p53
sS'__repr__'
p54
S"<method-wrapper '__repr__' of SocketClosed object>"
p55
sS'__hash__'
p56
S"<method-wrapper '__hash__' of SocketClosed object>"
p57
ssS'evalue'
p58
S'Client closed socket.'
p59
sS'frames'
p60
(lp61
(dp62
S'file'
p63
S'C:\\Users\\Atahan\\Desktop\\WB\\Tidenow\\gluon\\rocket.py'
p64
sS'dump'
p65
(dp66
S'self'
p67
S'<WSGIWorker(Thread-2, started daemon 6044)>'
p68
sS'conn'
p69
S'<gluon.rocket.Connection object>'
p70
sS'self.run_app'
p71
S'<bound method WSGIWorker.run_app of <WSGIWorker(Thread-2, started daemon 6044)>>'
p72
ssS'lnum'
p73
I1337
sS'lines'
p74
(dp75
I1332
S'            # Enter connection serve loop'
p76
sI1333
S'            while True:'
p77
sI1334
S'                if __debug__:'
p78
sI1335
S"                    self.err_log.debug('Serving a request')"
p79
sI1336
S'                try:'
p80
sI1337
S'                    self.run_app(conn)'
p81
sI1338
S'                except:'
p82
sI1339
S'                    exc = sys.exc_info()'
p83
sI1340
S'                    handled = self._handleError(*exc)'
p84
sI1341
S'                    if handled:'
p85
ssS'call'
p86
S'(self=<WSGIWorker(Thread-2, started daemon 6044)>)'
p87
sS'func'
p88
S'run'
p89
sa(dp90
g63
S'C:\\Users\\Atahan\\Desktop\\WB\\Tidenow\\gluon\\rocket.py'
p91
sg65
(dp92
S'self'
p93
S'<WSGIWorker(Thread-2, started daemon 6044)>'
p94
sS'self.environ'
p95
S"{'HTTP_ACCEPT': 'text/html,application/xhtml+xml,application/xml;q=0.9,image/webp,*/*;q=0.8', 'HTTP_ACCEPT_ENCODING': 'gzip, deflate, sdch', 'HTTP_ACCEPT_LANGUAGE': 'en-US,en;q=0.8,tr;q=0.6', 'HTTP_CACHE_CONTROL': 'max-age=0', 'HTTP_CONNECTION': 'keep-alive', 'HTTP_COOKIE': 'mp_12d52d8633a5b432975592d13ebd3f34_mixpanel=%7B...st=127.0.0.1-9360ea2b-6c30-43f0-a02d-f5ee4c83a7c6', 'HTTP_DNT': '1', 'HTTP_HOST': '127.0.0.1:8000', 'HTTP_UPGRADE_INSECURE_REQUESTS': '1', 'HTTP_USER_AGENT': 'Mozilla/5.0 (Windows NT 6.3; WOW64) AppleWebKit/...ML, like Gecko) Chrome/47.0.2526.80 Safari/537.36', ...}"
p96
sS'sock_file'
p97
S'<socket._fileobject object>'
p98
sS'environ'
p99
S'undefined'
p100
sS'self.build_environ'
p101
S'<bound method WSGIWorker.build_environ of <WSGIWorker(Thread-2, started daemon 6044)>>'
p102
sS'conn'
p103
S'<gluon.rocket.Connection object>'
p104
ssg73
I1830
sg74
(dp105
I1825
S'        else:'
p106
sI1826
S'            sock_file = conn.makefile(BUF_SIZE)'
p107
sI1827
S''
sI1828
S'        try:'
p108
sI1829
S'            # Read the headers and build our WSGI environment'
p109
sI1830
S'            self.environ = environ = self.build_environ(sock_file, conn)'
p110
sI1831
S''
sI1832
S'            # Handle 100 Continue'
p111
sI1833
S"            if environ.get('HTTP_EXPECT', '') == '100-continue':"
p112
sI1834
S"                res = environ['SERVER_PROTOCOL'] + ' 100 Continue\\r\\n\\r\\n'"
p113
ssg86
S'(self=<WSGIWorker(Thread-2, started daemon 6044)>, conn=<gluon.rocket.Connection object>)'
p114
sg88
S'run_app'
p115
sa(dp116
g63
S'C:\\Users\\Atahan\\Desktop\\WB\\Tidenow\\gluon\\rocket.py'
p117
sg65
(dp118
S'sock_file'
p119
S'<socket._fileobject object>'
p120
sS'self.read_request_line'
p121
S'<bound method WSGIWorker.read_request_line of <WSGIWorker(Thread-2, started daemon 6044)>>'
p122
sS'self'
p123
S'<WSGIWorker(Thread-2, started daemon 6044)>'
p124
sS'request'
p125
g100
ssg73
I1650
sg74
(dp126
I1645
S'                                      "wsgiorg.futures": executor.futures})'
p127
sI1646
S''
sI1647
S'    def build_environ(self, sock_file, conn):'
p128
sI1648
S'        """ Build the execution environment. """'
p129
sI1649
S'        # Grab the request line'
p130
sI1650
S'        request = self.read_request_line(sock_file)'
p131
sI1651
S''
sI1652
S'        # Copy the Base Environment'
p132
sI1653
S'        environ = self.base_environ.copy()'
p133
sI1654
S''
ssg86
S'(self=<WSGIWorker(Thread-2, started daemon 6044)>, sock_file=<socket._fileobject object>, conn=<gluon.rocket.Connection object>)'
p134
sg88
S'build_environ'
p135
sa(dp136
g63
S'C:\\Users\\Atahan\\Desktop\\WB\\Tidenow\\gluon\\rocket.py'
p137
sg65
(dp138
S'global SocketClosed'
p139
S"<class 'gluon.rocket.SocketClosed'>"
p140
ssg73
I1413
sg74
(dp141
I1408
S''
sI1409
S'        if not d:'
p142
sI1410
S'            if __debug__:'
p143
sI1411
S'                self.err_log.debug('
p144
sI1412
S"                    'Client did not send a recognizable request.')"
p145
sI1413
S"            raise SocketClosed('Client closed socket.')"
p146
sI1414
S''
sI1415
S'        self.request_line = d'
p147
sI1416
S''
sI1417
S"        # NOTE: I've replaced the traditional method of procedurally breaking"
p148
ssg86
S'(self=<WSGIWorker(Thread-2, started daemon 6044)>, sock_file=<socket._fileobject object>)'
p149
sg88
S'read_request_line'
p150
sasS'pyver'
p151
S'Python 2.7.10: C:\\Python27\\python.exe (prefix: C:\\Python27)'
p152
sS'etype'
p153
S"<class 'gluon.rocket.SocketClosed'>"
p154
sS'date'
p155
S'Sun Dec 13 15:12:57 2015'
p156
sS'locals'
p157
(dp158
S'sock_file'
p159
S'<socket._fileobject object>'
p160
sS'self'
p161
S'<WSGIWorker(Thread-2, started daemon 6044)>'
p162
sS'd'
S"''"
p163
sssS'traceback'
p164
S'Traceback (most recent call last):\n  File "C:\\Users\\Atahan\\Desktop\\WB\\Tidenow\\gluon\\rocket.py", line 1337, in run\n    self.run_app(conn)\n  File "C:\\Users\\Atahan\\Desktop\\WB\\Tidenow\\gluon\\rocket.py", line 1830, in run_app\n    self.environ = environ = self.build_environ(sock_file, conn)\n  File "C:\\Users\\Atahan\\Desktop\\WB\\Tidenow\\gluon\\rocket.py", line 1650, in build_environ\n    request = self.read_request_line(sock_file)\n  File "C:\\Users\\Atahan\\Desktop\\WB\\Tidenow\\gluon\\rocket.py", line 1413, in read_request_line\n    raise SocketClosed(\'Client closed socket.\')\nSocketClosed: Client closed socket.\n'
p165
s.