(dp1
S'output'
p2
S"<class 'sqlite3.OperationalError'> database is locked"
p3
sS'layer'
p4
S'C:\\Users\\Atahan\\Desktop\\WB\\Tidenow\\applications\\tidetest\\controllers/default.py'
p5
sS'code'
p6
S'# -*- coding: utf-8 -*-\n# this file is released under public domain and you can use without limitations\n\n#########################################################################\n## This is a sample controller\n## - index is the default action of any application\n## - user is required for authentication and authorization\n## - download is for downloading files uploaded in the db (does streaming)\n#########################################################################\nfrom gluon import current\nimport logging\n\ndef index():\n    """\n    example action using the internationalization operator T and flash\n    rendered by views/default/index.html or views/generic.html\n\n    if you need a simple wiki simply replace the two lines below with:\n    return auth.wiki()\n    """\n    response.flash = T("Hello World")\n    return dict(message=T(\'Welcome to web2py!\'))\n\ndef index2():\n    """\n    example action using the internationalization operator T and flash\n    rendered by views/default/index.html or views/generic.html\n\n    if you need a simple wiki simply replace the two lines below with:\n    return auth.wiki()\n    """\n    #db = current.db\n    import datetime\n    fulldate = datetime.datetime.today()\n    if fulldate.minute > 30:\n        minute_part = 30\n    else:\n        minute_part = 0\n\n    restaurantList = db((db.currentDiscounts.day_time==fulldate.weekday()+1) &\n                        (db.currentDiscounts.hour_time==fulldate.hour) &\n                        (db.currentDiscounts.min_time==minute_part) ).select(db.currentDiscounts.ALL, orderby=~db.currentDiscounts.discount)\n    #TODO take min of 3 restaurants. Where empty discounts count as 100. But if there are 3 empty discounts then the discount is 0.\n    #TODO make the closed restaurants grey and sold outs red in HTML-CSS.\n\n    #min(restaurantList.discount,restaurantList2.discount,restaurantList3.discount)\n    return dict(allRest=restaurantList)\n\ndef restaurant():\n    clickedRestaurant = request.args[0]\n\n    # The argument will have dashes instead of spaces. Replace them\n    clickedRestaurant = clickedRestaurant.replace("-"," ")\n    restaurantInfo = db(db.restaurants.name==clickedRestaurant).select(db.restaurants.ALL, orderby=~db.restaurants.discount, limitby=(0,1)).first()\n    paymentStatus = "Not Done"\n    if restaurantInfo:\n        #Stripe handling:\n        from gluon.contrib.stripe import Stripe\n        key="sk_test_GCahWSkWRdvnTUzF8cHDUUKQ"\n        testPostVars = request.post_vars\n        logging.info("In pay3 stuff: " + str(testPostVars))\n        if testPostVars[\'stripeToken\']:\n            token = request.post_vars[\'stripeToken\']\n            amountTotal = int(request.post_vars[\'inputAmount\'])*100\n            d = Stripe(key).charge(\n                       amount=amountTotal,\n                       currency=\'usd\',\n                       token=token,\n                       description=\'test charge\')\n            logging.info(str(d))\n            paymentStatus = d[\'status\'].title()\n        return dict(singleRest=restaurantInfo,status=paymentStatus)\n    else:\n        return "No restaurant with name: " + clickedRestaurant\n\ndef pay3():\n    from gluon.contrib.stripe import Stripe\n    key="sk_test_GCahWSkWRdvnTUzF8cHDUUKQ"\n    testPostVars = request.post_vars\n    logging.info("In pay3 stuff: " + str(testPostVars))\n    if testPostVars:\n        token = request.post_vars[\'stripeToken\']\n        amountTotal = int(request.post_vars[\'amount\'])*100\n        d = Stripe(key).charge(\n                   amount=amountTotal,\n                   currency=\'usd\',\n                   token=token,\n                   description=\'test charge\')\n        logging.info(str(d))\n        return dict(form=d)\n    return dict(form=testPostVars)\n\ndef fillDummyDB():\n    # This fills the DB with dummy restaurants\n    #db = current.db\n    db.restaurants.insert(name="Ephesus", description="Turkish and Greek", logoURL="extra/static/logos/ephesus_logo.png", discount=31)\n    db.restaurants.insert(name="Cafe Baklava", description="Mediterranean Grill", logoURL="extra/static/logos/cafe_baklava_logo.png", discount=43)\n    db.restaurants.insert(name="Evvia", description="Greek", logoURL="extra/static/logos/evvia.png", discount=12)\n    db.restaurants.insert(name="Galata Bistro", description="Mediterranean", logoURL="extra/static/logos/galata_logo.png", discount=26)\n    db.restaurants.insert(name="Olympus", description="Bakery, Breakfast & Lunch", logoURL="extra/static/logos/olympus_logo.png", discount=17)\n    db.restaurants.insert(name="Shana", description="Thai", logoURL="extra/static/logos/shana.png", discount=49)\n    db.restaurants.insert(name="Tamarine", description="Vietnamese", logoURL="extra/static/logos/tamarine.png", discount=14)\n    #db.restaurants.insert(name="Joya", description="Latin American, Tapas Bar", logoURL="extra/static/logos/joya.png", discount=36)\n    return "Success"\n\ndef fillDBFromCSV():\n    import csv\n    import os\n    filepath = os.path.join(request.folder,\'static/files\',\'site_database_dec12.csv\')\n    csvFile = open(filepath,"rb")\n    reader = csv.reader(csvFile)\n    rownum = 0\n    resString = ""\n    for row in reader:\n        # Save header row.\n        #if rownum == 25:\n        #    return "Success for 25 rows"\n        if rownum == 0:\n            header = row\n        else:\n            name = row[0]\n            region = row[1]\n            res_id = row[2]\n            day = row[3]\n            hour = row[4]\n            minute = row[5]\n            if row[6]!="":\n                discount = float(row[6])*100\n            else:\n                discount = -999\n            openTime = row[7]\n            cuisine = row[8]\n            isopen = row[9]\n            member = row[10]\n            db.restaurants.insert(name=name, region=region, restaurant_id=res_id, day_time=day, hour_time=hour, min_time=minute, open_hours_display=openTime,\n                                  cuisine=cuisine, isopen_correct=isopen, member_restaurant=member, discount=discount)\n\n        rownum += 1\n    csvFile.close()\n    return "Success"\n\ndef runRestaurantDiscountCalculation():\n    import datetime\n    fulldate = datetime.datetime.today()\n    if fulldate.minute > 30:\n        minute_part = 30\n    else:\n        minute_part = 0\n\n    restaurantList = db((db.restaurants.day_time==fulldate.weekday()+1) &\n                        (db.restaurants.hour_time==fulldate.hour) &\n                        (db.restaurants.min_time==minute_part) ).select(db.restaurants.ALL, orderby=~db.restaurants.discount)\n    for singleRest in restaurantList:\n        # Get the other two discount values for a particular restaurant.\n        disc1 = singleRest.discount\n        disc2 = db( (db.restaurants.name==singleRest.name) &\n                    (db.restaurants.day_time==fulldate.weekday()+1) &\n                    (db.restaurants.hour_time==fulldate.hour+1) &\n                    (db.restaurants.min_time==minute_part) ).select(db.restaurants.ALL, limitby=(0,1)).first().discount\n\n        disc3 = db( (db.restaurants.name==singleRest.name) &\n                    (db.restaurants.day_time==fulldate.weekday()+1) &\n                    (db.restaurants.hour_time==fulldate.hour+2) &\n                    (db.restaurants.min_time==minute_part)).select(db.restaurants.ALL, limitby=(0,1)).first().discount\n\n        minVal=min(abs(disc1),abs(disc2),abs(disc3))\n        if minVal==999:\n            # Means it is closed\n            singleRest.discount=-1\n        else:\n            singleRest.discount=minVal\n        db.currentDiscounts.insert(name=singleRest.name, region=singleRest.region, restaurant_id=singleRest.restaurant_id, day_time=singleRest.day_time, hour_time=singleRest.hour_time,\n                                   min_time=singleRest.min_time, open_hours_display=singleRest.open_hours_display, cuisine=singleRest.cuisine, isopen_correct=singleRest.isopen_correct,\n                                   member_restaurant=singleRest.member_restaurant, discount=singleRest.discount)\n    logging.info("Discount Calculation successful.")\n    return "Discount calculation successful."\n\ndef clearDB():\n    db(db.restaurants.id>0).delete()\n    db(db.currentDiscounts.id>0).delete()\n    return "DB cleared."\n\n\ndef user():\n    """\n    exposes:\n    http://..../[app]/default/user/login\n    http://..../[app]/default/user/logout\n    http://..../[app]/default/user/register\n    http://..../[app]/default/user/profile\n    http://..../[app]/default/user/retrieve_password\n    http://..../[app]/default/user/change_password\n    http://..../[app]/default/user/manage_users (requires membership in\n    http://..../[app]/default/user/bulk_register\n    use @auth.requires_login()\n        @auth.requires_membership(\'group name\')\n        @auth.requires_permission(\'read\',\'table name\',record_id)\n    to decorate functions that need access control\n    """\n    return dict(form=auth())\n\n\n@cache.action()\ndef download():\n    """\n    allows downloading of uploaded files\n    http://..../[app]/default/download/[filename]\n    """\n    return response.download(request, db)\n\n\ndef call():\n    """\n    exposes services. for example:\n    http://..../[app]/default/call/jsonrpc\n    decorate with @services.jsonrpc the functions to expose\n    supports xml, json, xmlrpc, jsonrpc, amfrpc, rss, csv\n    """\n    return service()\n\n\n\nresponse._vars=response._caller(fillDBFromCSV)\n'
p7
sS'snapshot'
p8
(dp9
S'exception'
p10
(dp11
S'__module__'
p12
S"'sqlite3'"
p13
sS'__getslice__'
p14
S"<method-wrapper '__getslice__' of OperationalError object>"
p15
sS'__str__'
p16
S"<method-wrapper '__str__' of OperationalError object>"
p17
sS'__reduce__'
p18
S'<built-in method __reduce__ of OperationalError object>'
p19
sS'__dict__'
p20
S'{}'
p21
sS'__sizeof__'
p22
S'<built-in method __sizeof__ of OperationalError object>'
p23
sS'__weakref__'
p24
S'None'
p25
sS'__init__'
p26
S"<method-wrapper '__init__' of OperationalError object>"
p27
sS'__setattr__'
p28
S"<method-wrapper '__setattr__' of OperationalError object>"
p29
sS'__reduce_ex__'
p30
S'<built-in method __reduce_ex__ of OperationalError object>'
p31
sS'__new__'
p32
S'<built-in method __new__ of type object>'
p33
sS'__format__'
p34
S'<built-in method __format__ of OperationalError object>'
p35
sS'__class__'
p36
S"<class 'sqlite3.OperationalError'>"
p37
sS'__doc__'
p38
S'None'
p39
sS'__getitem__'
p40
S"<method-wrapper '__getitem__' of OperationalError object>"
p41
sS'__setstate__'
p42
S'<built-in method __setstate__ of OperationalError object>'
p43
sS'__getattribute__'
p44
S"<method-wrapper '__getattribute__' of OperationalError object>"
p45
sS'args'
p46
S"('database is locked',)"
p47
sS'__subclasshook__'
p48
S'<built-in method __subclasshook__ of type object>'
p49
sS'__unicode__'
p50
S'<built-in method __unicode__ of OperationalError object>'
p51
sS'__delattr__'
p52
S"<method-wrapper '__delattr__' of OperationalError object>"
p53
sS'__repr__'
p54
S"<method-wrapper '__repr__' of OperationalError object>"
p55
sS'__hash__'
p56
S"<method-wrapper '__hash__' of OperationalError object>"
p57
ssS'evalue'
p58
S'database is locked'
p59
sS'request'
p60
cgluon.html
XML_unpickle
p61
(S's\xa0e\x00\x00<div><table><tr><td style="font-weight:bold;vertical-align:top;">ajax</td><td style="vertical-align:top;">:</td><td><div>False</div></td></tr><tr><td style="font-weight:bold;vertical-align:top;">application</td><td style="vertical-align:top;">:</td><td><div>tidetest</div></td></tr><tr><td style="font-weight:bold;vertical-align:top;">args</td><td style="vertical-align:top;">:</td><td><div><table></table></div></td></tr><tr><td style="font-weight:bold;vertical-align:top;">cid</td><td style="vertical-align:top;">:</td><td><div>None</div></td></tr><tr><td style="font-weight:bold;vertical-align:top;">client</td><td style="vertical-align:top;">:</td><td><div>127.0.0.1</div></td></tr><tr><td style="font-weight:bold;vertical-align:top;">controller</td><td style="vertical-align:top;">:</td><td><div>default</div></td></tr><tr><td style="font-weight:bold;vertical-align:top;">cookies</td><td style="vertical-align:top;">:</td><td><div><table><tr><td style="font-weight:bold;vertical-align:top;">mp_12d52d8633a5b432975592d13ebd3f34_mixpanel</td><td style="vertical-align:top;">:</td><td><div>%7B%22distinct_id%22%3A%20%221519814e57c14e-02ea32bc1-6616147b-1fa400-1519814e57d645%22%2C%22%24initial_referrer%22%3A%20%22%24direct%22%2C%22%24initial_referring_domain%22%3A%20%22%24direct%22%7D<table><tr><td style="font-weight:bold;vertical-align:top;">comment</td><td style="vertical-align:top;">:</td><td><div></div></td></tr><tr><td style="font-weight:bold;vertical-align:top;">domain</td><td style="vertical-align:top;">:</td><td><div></div></td></tr><tr><td style="font-weight:bold;vertical-align:top;">expires</td><td style="vertical-align:top;">:</td><td><div></div></td></tr><tr><td style="font-weight:bold;vertical-align:top;">httponly</td><td style="vertical-align:top;">:</td><td><div></div></td></tr><tr><td style="font-weight:bold;vertical-align:top;">max-age</td><td style="vertical-align:top;">:</td><td><div></div></td></tr><tr><td style="font-weight:bold;vertical-align:top;">path</td><td style="vertical-align:top;">:</td><td><div></div></td></tr><tr><td style="font-weight:bold;vertical-align:top;">secure</td><td style="vertical-align:top;">:</td><td><div></div></td></tr><tr><td style="font-weight:bold;vertical-align:top;">version</td><td style="vertical-align:top;">:</td><td><div></div></td></tr></table></div></td></tr><tr><td style="font-weight:bold;vertical-align:top;">session_id_admin</td><td style="vertical-align:top;">:</td><td><div>127.0.0.1-b74398d7-783a-4eac-a3fb-ba874a9923c0<table><tr><td style="font-weight:bold;vertical-align:top;">comment</td><td style="vertical-align:top;">:</td><td><div></div></td></tr><tr><td style="font-weight:bold;vertical-align:top;">domain</td><td style="vertical-align:top;">:</td><td><div></div></td></tr><tr><td style="font-weight:bold;vertical-align:top;">expires</td><td style="vertical-align:top;">:</td><td><div></div></td></tr><tr><td style="font-weight:bold;vertical-align:top;">httponly</td><td style="vertical-align:top;">:</td><td><div></div></td></tr><tr><td style="font-weight:bold;vertical-align:top;">max-age</td><td style="vertical-align:top;">:</td><td><div></div></td></tr><tr><td style="font-weight:bold;vertical-align:top;">path</td><td style="vertical-align:top;">:</td><td><div></div></td></tr><tr><td style="font-weight:bold;vertical-align:top;">secure</td><td style="vertical-align:top;">:</td><td><div></div></td></tr><tr><td style="font-weight:bold;vertical-align:top;">version</td><td style="vertical-align:top;">:</td><td><div></div></td></tr></table></div></td></tr><tr><td style="font-weight:bold;vertical-align:top;">session_id_tidetest</td><td style="vertical-align:top;">:</td><td><div>127.0.0.1-ae4328a1-542d-4df1-8123-8e82f09c5ea2<table><tr><td style="font-weight:bold;vertical-align:top;">comment</td><td style="vertical-align:top;">:</td><td><div></div></td></tr><tr><td style="font-weight:bold;vertical-align:top;">domain</td><td style="vertical-align:top;">:</td><td><div></div></td></tr><tr><td style="font-weight:bold;vertical-align:top;">expires</td><td style="vertical-align:top;">:</td><td><div></div></td></tr><tr><td style="font-weight:bold;vertical-align:top;">httponly</td><td style="vertical-align:top;">:</td><td><div></div></td></tr><tr><td style="font-weight:bold;vertical-align:top;">max-age</td><td style="vertical-align:top;">:</td><td><div></div></td></tr><tr><td style="font-weight:bold;vertical-align:top;">path</td><td style="vertical-align:top;">:</td><td><div></div></td></tr><tr><td style="font-weight:bold;vertical-align:top;">secure</td><td style="vertical-align:top;">:</td><td><div></div></td></tr><tr><td style="font-weight:bold;vertical-align:top;">version</td><td style="vertical-align:top;">:</td><td><div></div></td></tr></table></div></td></tr><tr><td style="font-weight:bold;vertical-align:top;">session_id_welcome</td><td style="vertical-align:top;">:</td><td><div>127.0.0.1-6b000731-7f71-4a28-9ca7-fa6bf7e1b9a7<table><tr><td style="font-weight:bold;vertical-align:top;">comment</td><td style="vertical-align:top;">:</td><td><div></div></td></tr><tr><td style="font-weight:bold;vertical-align:top;">domain</td><td style="vertical-align:top;">:</td><td><div></div></td></tr><tr><td style="font-weight:bold;vertical-align:top;">expires</td><td style="vertical-align:top;">:</td><td><div></div></td></tr><tr><td style="font-weight:bold;vertical-align:top;">httponly</td><td style="vertical-align:top;">:</td><td><div></div></td></tr><tr><td style="font-weight:bold;vertical-align:top;">max-age</td><td style="vertical-align:top;">:</td><td><div></div></td></tr><tr><td style="font-weight:bold;vertical-align:top;">path</td><td style="vertical-align:top;">:</td><td><div></div></td></tr><tr><td style="font-weight:bold;vertical-align:top;">secure</td><td style="vertical-align:top;">:</td><td><div></div></td></tr><tr><td style="font-weight:bold;vertical-align:top;">version</td><td style="vertical-align:top;">:</td><td><div></div></td></tr></table></div></td></tr></table></div></td></tr><tr><td style="font-weight:bold;vertical-align:top;">env</td><td style="vertical-align:top;">:</td><td><div><table><tr><td style="font-weight:bold;vertical-align:top;">HTTP_ACCEPT</td><td style="vertical-align:top;">:</td><td><div>text/html,application/xhtml+xml,application/xml;q=0.9,image/webp,*/*;q=0.8</div></td></tr><tr><td style="font-weight:bold;vertical-align:top;">HTTP_ACCEPT_ENCODING</td><td style="vertical-align:top;">:</td><td><div>gzip, deflate, sdch</div></td></tr><tr><td style="font-weight:bold;vertical-align:top;">HTTP_ACCEPT_LANGUAGE</td><td style="vertical-align:top;">:</td><td><div>en-US,en;q=0.8,tr;q=0.6</div></td></tr><tr><td style="font-weight:bold;vertical-align:top;">HTTP_CONNECTION</td><td style="vertical-align:top;">:</td><td><div>keep-alive</div></td></tr><tr><td style="font-weight:bold;vertical-align:top;">HTTP_COOKIE</td><td style="vertical-align:top;">:</td><td><div>mp_12d52d8633a5b432975592d13ebd3f34_mixpanel=%7B%22distinct_id%22%3A%20%221519814e57c14e-02ea32bc1-6616147b-1fa400-1519814e57d645%22%2C%22%24initial_referrer%22%3A%20%22%24direct%22%2C%22%24initial_referring_domain%22%3A%20%22%24direct%22%7D; session_id_welcome=127.0.0.1-6b000731-7f71-4a28-9ca7-fa6bf7e1b9a7; session_id_admin=127.0.0.1-b74398d7-783a-4eac-a3fb-ba874a9923c0; session_id_tidetest=127.0.0.1-ae4328a1-542d-4df1-8123-8e82f09c5ea2</div></td></tr><tr><td style="font-weight:bold;vertical-align:top;">HTTP_DNT</td><td style="vertical-align:top;">:</td><td><div>1</div></td></tr><tr><td style="font-weight:bold;vertical-align:top;">HTTP_HOST</td><td style="vertical-align:top;">:</td><td><div>127.0.0.1:8000</div></td></tr><tr><td style="font-weight:bold;vertical-align:top;">HTTP_UPGRADE_INSECURE_REQUESTS</td><td style="vertical-align:top;">:</td><td><div>1</div></td></tr><tr><td style="font-weight:bold;vertical-align:top;">HTTP_USER_AGENT</td><td style="vertical-align:top;">:</td><td><div>Mozilla/5.0 (Windows NT 6.3; WOW64) AppleWebKit/537.36 (KHTML, like Gecko) Chrome/47.0.2526.80 Safari/537.36</div></td></tr><tr><td style="font-weight:bold;vertical-align:top;">PATH_INFO</td><td style="vertical-align:top;">:</td><td><div>/tidetest/default/fillDBFromCSV</div></td></tr><tr><td style="font-weight:bold;vertical-align:top;">QUERY_STRING</td><td style="vertical-align:top;">:</td><td><div></div></td></tr><tr><td style="font-weight:bold;vertical-align:top;">REMOTE_ADDR</td><td style="vertical-align:top;">:</td><td><div>127.0.0.1</div></td></tr><tr><td style="font-weight:bold;vertical-align:top;">REMOTE_PORT</td><td style="vertical-align:top;">:</td><td><div>61745</div></td></tr><tr><td style="font-weight:bold;vertical-align:top;">REQUEST_METHOD</td><td style="vertical-align:top;">:</td><td><div>GET</div></td></tr><tr><td style="font-weight:bold;vertical-align:top;">SCRIPT_NAME</td><td style="vertical-align:top;">:</td><td><div></div></td></tr><tr><td style="font-weight:bold;vertical-align:top;">SERVER_NAME</td><td style="vertical-align:top;">:</td><td><div>Atahan-MSI</div></td></tr><tr><td style="font-weight:bold;vertical-align:top;">SERVER_PORT</td><td style="vertical-align:top;">:</td><td><div>8000</div></td></tr><tr><td style="font-weight:bold;vertical-align:top;">SERVER_PROTOCOL</td><td style="vertical-align:top;">:</td><td><div>HTTP/1.1</div></td></tr><tr><td style="font-weight:bold;vertical-align:top;">SERVER_SOFTWARE</td><td style="vertical-align:top;">:</td><td><div>Rocket 1.2.6</div></td></tr><tr><td style="font-weight:bold;vertical-align:top;">app_folders</td><td style="vertical-align:top;">:</td><td><div>set([&#x27;C:\\\\Users\\\\Atahan\\\\Desktop\\\\WB\\\\Tidenow\\\\applications\\\\tidetest\\\\&#x27;, &#x27;C:\\\\Users\\\\Atahan\\\\Desktop\\\\WB\\\\Tidenow\\\\applications\\\\welcome\\\\&#x27;, &#x27;C:\\\\Users\\\\Atahan\\\\Desktop\\\\WB\\\\Tidenow\\\\applications\\\\admin\\\\&#x27;])</div></td></tr><tr><td style="font-weight:bold;vertical-align:top;">applications_parent</td><td style="vertical-align:top;">:</td><td><div>C:\\Users\\Atahan\\Desktop\\WB\\Tidenow</div></td></tr><tr><td style="font-weight:bold;vertical-align:top;">cmd_args</td><td style="vertical-align:top;">:</td><td><div><table></table></div></td></tr><tr><td style="font-weight:bold;vertical-align:top;">cmd_options</td><td style="vertical-align:top;">:</td><td><div>&lt;Values at 0x30ec940: {&#x27;verbose&#x27;: False, &#x27;ip&#x27;: &#x27;127.0.0.1&#x27;, &#x27;debuglevel&#x27;: 30, &#x27;with_scheduler&#x27;: False, &#x27;ips&#x27;: [], &#x27;shutdown_timeout&#x27;: 5, &#x27;taskbar&#x27;: False, &#x27;with_coverage&#x27;: False, &#x27;scheduler_groups&#x27;: None, &#x27;port&#x27;: 8000, &#x27;maxthreads&#x27;: None, &#x27;softcron&#x27;: False, &#x27;server_name&#x27;: &#x27;Atahan-MSI&#x27;, &#x27;bpython&#x27;: False, &#x27;nogui&#x27;: False, &#x27;pid_filename&#x27;: &#x27;httpserver.pid&#x27;, &#x27;print_errors&#x27;: False, &#x27;extcron&#x27;: False, &#x27;runcron&#x27;: False, &#x27;run_system_tests&#x27;: False, &#x27;test&#x27;: None, &#x27;folder&#x27;: &#x27;C:\\\\Users\\\\Atahan\\\\Desktop\\\\WB\\\\Tidenow&#x27;, &#x27;config&#x27;: &#x27;&#x27;, &#x27;minthreads&#x27;: None, &#x27;shell&#x27;: None, &#x27;run&#x27;: &#x27;&#x27;, &#x27;log_filename&#x27;: &#x27;httpserver.log&#x27;, &#x27;profiler_dir&#x27;: None, &#x27;args&#x27;: [&#x27;&#x27;], &#x27;socket_timeout&#x27;: 5, &#x27;ssl_ca_certificate&#x27;: None, &#x27;scheduler&#x27;: None, &#x27;interfaces&#x27;: None, &#x27;ssl_private_key&#x27;: &#x27;&#x27;, &#x27;gae&#x27;: None, &#x27;password&#x27;: &#x27;&lt;ask&gt;&#x27;, &#x27;request_queue_size&#x27;: 5, &#x27;ssl_certificate&#x27;: &#x27;&#x27;, &#x27;cronjob&#x27;: False, &#x27;numthreads&#x27;: None, &#x27;quiet&#x27;: False, &#x27;import_models&#x27;: False, &#x27;timeout&#x27;: 10, &#x27;plain&#x27;: False, &#x27;nobanner&#x27;: False}&gt;</div></td></tr><tr><td style="font-weight:bold;vertical-align:top;">db_sessions</td><td style="vertical-align:top;">:</td><td><div>set([])</div></td></tr><tr><td style="font-weight:bold;vertical-align:top;">debugging</td><td style="vertical-align:top;">:</td><td><div>False</div></td></tr><tr><td style="font-weight:bold;vertical-align:top;">gluon_parent</td><td style="vertical-align:top;">:</td><td><div>C:\\Users\\Atahan\\Desktop\\WB\\Tidenow</div></td></tr><tr><td style="font-weight:bold;vertical-align:top;">http_accept</td><td style="vertical-align:top;">:</td><td><div>text/html,application/xhtml+xml,application/xml;q=0.9,image/webp,*/*;q=0.8</div></td></tr><tr><td style="font-weight:bold;vertical-align:top;">http_accept_encoding</td><td style="vertical-align:top;">:</td><td><div>gzip, deflate, sdch</div></td></tr><tr><td style="font-weight:bold;vertical-align:top;">http_accept_language</td><td style="vertical-align:top;">:</td><td><div>en-US,en;q=0.8,tr;q=0.6</div></td></tr><tr><td style="font-weight:bold;vertical-align:top;">http_connection</td><td style="vertical-align:top;">:</td><td><div>keep-alive</div></td></tr><tr><td style="font-weight:bold;vertical-align:top;">http_cookie</td><td style="vertical-align:top;">:</td><td><div>mp_12d52d8633a5b432975592d13ebd3f34_mixpanel=%7B%22distinct_id%22%3A%20%221519814e57c14e-02ea32bc1-6616147b-1fa400-1519814e57d645%22%2C%22%24initial_referrer%22%3A%20%22%24direct%22%2C%22%24initial_referring_domain%22%3A%20%22%24direct%22%7D; session_id_welcome=127.0.0.1-6b000731-7f71-4a28-9ca7-fa6bf7e1b9a7; session_id_admin=127.0.0.1-b74398d7-783a-4eac-a3fb-ba874a9923c0; session_id_tidetest=127.0.0.1-ae4328a1-542d-4df1-8123-8e82f09c5ea2</div></td></tr><tr><td style="font-weight:bold;vertical-align:top;">http_dnt</td><td style="vertical-align:top;">:</td><td><div>1</div></td></tr><tr><td style="font-weight:bold;vertical-align:top;">http_host</td><td style="vertical-align:top;">:</td><td><div>127.0.0.1:8000</div></td></tr><tr><td style="font-weight:bold;vertical-align:top;">http_upgrade_insecure_requests</td><td style="vertical-align:top;">:</td><td><div>1</div></td></tr><tr><td style="font-weight:bold;vertical-align:top;">http_user_agent</td><td style="vertical-align:top;">:</td><td><div>Mozilla/5.0 (Windows NT 6.3; WOW64) AppleWebKit/537.36 (KHTML, like Gecko) Chrome/47.0.2526.80 Safari/537.36</div></td></tr><tr><td style="font-weight:bold;vertical-align:top;">is_jython</td><td style="vertical-align:top;">:</td><td><div>False</div></td></tr><tr><td style="font-weight:bold;vertical-align:top;">is_pypy</td><td style="vertical-align:top;">:</td><td><div>False</div></td></tr><tr><td style="font-weight:bold;vertical-align:top;">is_source</td><td style="vertical-align:top;">:</td><td><div>True</div></td></tr><tr><td style="font-weight:bold;vertical-align:top;">local_hosts</td><td style="vertical-align:top;">:</td><td><div><table><tr><td><div>Atahan-MSI.hsd1.ca.comcast.net.</div></td></tr><tr><td><div>::ffff:127.0.0.1</div></td></tr><tr><td><div>::1</div></td></tr><tr><td><div>2601:647:4401:6e55:a09c:8163:a4dc:77f4</div></td></tr><tr><td><div>2601:647:4401:6e55:ac85:3822:3d11:2807</div></td></tr><tr><td><div>10.0.1.10</div></td></tr><tr><td><div>fe80::ac85:3822:3d11:2807%4</div></td></tr><tr><td><div>Atahan-MSI</div></td></tr><tr><td><div>127.0.0.1</div></td></tr></table></div></td></tr><tr><td style="font-weight:bold;vertical-align:top;">path_info</td><td style="vertical-align:top;">:</td><td><div>/tidetest/default/fillDBFromCSV</div></td></tr><tr><td style="font-weight:bold;vertical-align:top;">query_string</td><td style="vertical-align:top;">:</td><td><div></div></td></tr><tr><td style="font-weight:bold;vertical-align:top;">remote_addr</td><td style="vertical-align:top;">:</td><td><div>127.0.0.1</div></td></tr><tr><td style="font-weight:bold;vertical-align:top;">remote_port</td><td style="vertical-align:top;">:</td><td><div>61745</div></td></tr><tr><td style="font-weight:bold;vertical-align:top;">request_method</td><td style="vertical-align:top;">:</td><td><div>GET</div></td></tr><tr><td style="font-weight:bold;vertical-align:top;">request_uri</td><td style="vertical-align:top;">:</td><td><div>/tidetest/default/fillDBFromCSV</div></td></tr><tr><td style="font-weight:bold;vertical-align:top;">script_name</td><td style="vertical-align:top;">:</td><td><div></div></td></tr><tr><td style="font-weight:bold;vertical-align:top;">server_name</td><td style="vertical-align:top;">:</td><td><div>Atahan-MSI</div></td></tr><tr><td style="font-weight:bold;vertical-align:top;">server_port</td><td style="vertical-align:top;">:</td><td><div>8000</div></td></tr><tr><td style="font-weight:bold;vertical-align:top;">server_protocol</td><td style="vertical-align:top;">:</td><td><div>HTTP/1.1</div></td></tr><tr><td style="font-weight:bold;vertical-align:top;">server_software</td><td style="vertical-align:top;">:</td><td><div>Rocket 1.2.6</div></td></tr><tr><td style="font-weight:bold;vertical-align:top;">web2py_path</td><td style="vertical-align:top;">:</td><td><div>C:\\Users\\Atahan\\Desktop\\WB\\Tidenow</div></td></tr><tr><td style="font-weight:bold;vertical-align:top;">web2py_version</td><td style="vertical-align:top;">:</td><td><div>2.12.3-stable+timestamp.2015.08.19.00.18.03</div></td></tr><tr><td style="font-weight:bold;vertical-align:top;">wsgi.errors</td><td style="vertical-align:top;">:</td><td><div>&lt;open file &#x27;&lt;stderr&gt;&#x27;, mode &#x27;w&#x27; at 0x01C9D0D0&gt;</div></td></tr><tr><td style="font-weight:bold;vertical-align:top;">wsgi.file_wrapper</td><td style="vertical-align:top;">:</td><td><div>&lt;class wsgiref.util.FileWrapper at 0x030AC260&gt;</div></td></tr><tr><td style="font-weight:bold;vertical-align:top;">wsgi.input</td><td style="vertical-align:top;">:</td><td><div>&lt;socket._fileobject object at 0x08191F30&gt;</div></td></tr><tr><td style="font-weight:bold;vertical-align:top;">wsgi.multiprocess</td><td style="vertical-align:top;">:</td><td><div>False</div></td></tr><tr><td style="font-weight:bold;vertical-align:top;">wsgi.multithread</td><td style="vertical-align:top;">:</td><td><div>True</div></td></tr><tr><td style="font-weight:bold;vertical-align:top;">wsgi.run_once</td><td style="vertical-align:top;">:</td><td><div>False</div></td></tr><tr><td style="font-weight:bold;vertical-align:top;">wsgi.url_scheme</td><td style="vertical-align:top;">:</td><td><div>http</div></td></tr><tr><td style="font-weight:bold;vertical-align:top;">wsgi.version</td><td style="vertical-align:top;">:</td><td><div><table><tr><td><div>1</div></td></tr><tr><td><div>0</div></td></tr></table></div></td></tr><tr><td style="font-weight:bold;vertical-align:top;">wsgi_errors</td><td style="vertical-align:top;">:</td><td><div>&lt;open file &#x27;&lt;stderr&gt;&#x27;, mode &#x27;w&#x27; at 0x01C9D0D0&gt;</div></td></tr><tr><td style="font-weight:bold;vertical-align:top;">wsgi_file_wrapper</td><td style="vertical-align:top;">:</td><td><div>&lt;class wsgiref.util.FileWrapper at 0x030AC260&gt;</div></td></tr><tr><td style="font-weight:bold;vertical-align:top;">wsgi_input</td><td style="vertical-align:top;">:</td><td><div>&lt;socket._fileobject object at 0x08191F30&gt;</div></td></tr><tr><td style="font-weight:bold;vertical-align:top;">wsgi_multiprocess</td><td style="vertical-align:top;">:</td><td><div>False</div></td></tr><tr><td style="font-weight:bold;vertical-align:top;">wsgi_multithread</td><td style="vertical-align:top;">:</td><td><div>True</div></td></tr><tr><td style="font-weight:bold;vertical-align:top;">wsgi_run_once</td><td style="vertical-align:top;">:</td><td><div>False</div></td></tr><tr><td style="font-weight:bold;vertical-align:top;">wsgi_url_scheme</td><td style="vertical-align:top;">:</td><td><div>http</div></td></tr><tr><td style="font-weight:bold;vertical-align:top;">wsgi_version</td><td style="vertical-align:top;">:</td><td><div><table><tr><td><div>1</div></td></tr><tr><td><div>0</div></td></tr></table></div></td></tr></table></div></td></tr><tr><td style="font-weight:bold;vertical-align:top;">extension</td><td style="vertical-align:top;">:</td><td><div>html</div></td></tr><tr><td style="font-weight:bold;vertical-align:top;">folder</td><td style="vertical-align:top;">:</td><td><div>C:\\Users\\Atahan\\Desktop\\WB\\Tidenow\\applications\\tidetest\\</div></td></tr><tr><td style="font-weight:bold;vertical-align:top;">function</td><td style="vertical-align:top;">:</td><td><div>fillDBFromCSV</div></td></tr><tr><td style="font-weight:bold;vertical-align:top;">global_settings</td><td style="vertical-align:top;">:</td><td><div><table><tr><td style="font-weight:bold;vertical-align:top;">app_folders</td><td style="vertical-align:top;">:</td><td><div>set([&#x27;C:\\\\Users\\\\Atahan\\\\Desktop\\\\WB\\\\Tidenow\\\\applications\\\\tidetest\\\\&#x27;, &#x27;C:\\\\Users\\\\Atahan\\\\Desktop\\\\WB\\\\Tidenow\\\\applications\\\\welcome\\\\&#x27;, &#x27;C:\\\\Users\\\\Atahan\\\\Desktop\\\\WB\\\\Tidenow\\\\applications\\\\admin\\\\&#x27;])</div></td></tr><tr><td style="font-weight:bold;vertical-align:top;">applications_parent</td><td style="vertical-align:top;">:</td><td><div>C:\\Users\\Atahan\\Desktop\\WB\\Tidenow</div></td></tr><tr><td style="font-weight:bold;vertical-align:top;">cmd_args</td><td style="vertical-align:top;">:</td><td><div><table></table></div></td></tr><tr><td style="font-weight:bold;vertical-align:top;">cmd_options</td><td style="vertical-align:top;">:</td><td><div>&lt;Values at 0x30ec940: {&#x27;verbose&#x27;: False, &#x27;ip&#x27;: &#x27;127.0.0.1&#x27;, &#x27;debuglevel&#x27;: 30, &#x27;with_scheduler&#x27;: False, &#x27;ips&#x27;: [], &#x27;shutdown_timeout&#x27;: 5, &#x27;taskbar&#x27;: False, &#x27;with_coverage&#x27;: False, &#x27;scheduler_groups&#x27;: None, &#x27;port&#x27;: 8000, &#x27;maxthreads&#x27;: None, &#x27;softcron&#x27;: False, &#x27;server_name&#x27;: &#x27;Atahan-MSI&#x27;, &#x27;bpython&#x27;: False, &#x27;nogui&#x27;: False, &#x27;pid_filename&#x27;: &#x27;httpserver.pid&#x27;, &#x27;print_errors&#x27;: False, &#x27;extcron&#x27;: False, &#x27;runcron&#x27;: False, &#x27;run_system_tests&#x27;: False, &#x27;test&#x27;: None, &#x27;folder&#x27;: &#x27;C:\\\\Users\\\\Atahan\\\\Desktop\\\\WB\\\\Tidenow&#x27;, &#x27;config&#x27;: &#x27;&#x27;, &#x27;minthreads&#x27;: None, &#x27;shell&#x27;: None, &#x27;run&#x27;: &#x27;&#x27;, &#x27;log_filename&#x27;: &#x27;httpserver.log&#x27;, &#x27;profiler_dir&#x27;: None, &#x27;args&#x27;: [&#x27;&#x27;], &#x27;socket_timeout&#x27;: 5, &#x27;ssl_ca_certificate&#x27;: None, &#x27;scheduler&#x27;: None, &#x27;interfaces&#x27;: None, &#x27;ssl_private_key&#x27;: &#x27;&#x27;, &#x27;gae&#x27;: None, &#x27;password&#x27;: &#x27;&lt;ask&gt;&#x27;, &#x27;request_queue_size&#x27;: 5, &#x27;ssl_certificate&#x27;: &#x27;&#x27;, &#x27;cronjob&#x27;: False, &#x27;numthreads&#x27;: None, &#x27;quiet&#x27;: False, &#x27;import_models&#x27;: False, &#x27;timeout&#x27;: 10, &#x27;plain&#x27;: False, &#x27;nobanner&#x27;: False}&gt;</div></td></tr><tr><td style="font-weight:bold;vertical-align:top;">db_sessions</td><td style="vertical-align:top;">:</td><td><div>set([])</div></td></tr><tr><td style="font-weight:bold;vertical-align:top;">debugging</td><td style="vertical-align:top;">:</td><td><div>False</div></td></tr><tr><td style="font-weight:bold;vertical-align:top;">gluon_parent</td><td style="vertical-align:top;">:</td><td><div>C:\\Users\\Atahan\\Desktop\\WB\\Tidenow</div></td></tr><tr><td style="font-weight:bold;vertical-align:top;">is_jython</td><td style="vertical-align:top;">:</td><td><div>False</div></td></tr><tr><td style="font-weight:bold;vertical-align:top;">is_pypy</td><td style="vertical-align:top;">:</td><td><div>False</div></td></tr><tr><td style="font-weight:bold;vertical-align:top;">is_source</td><td style="vertical-align:top;">:</td><td><div>True</div></td></tr><tr><td style="font-weight:bold;vertical-align:top;">local_hosts</td><td style="vertical-align:top;">:</td><td><div><table><tr><td><div>Atahan-MSI.hsd1.ca.comcast.net.</div></td></tr><tr><td><div>::ffff:127.0.0.1</div></td></tr><tr><td><div>::1</div></td></tr><tr><td><div>2601:647:4401:6e55:a09c:8163:a4dc:77f4</div></td></tr><tr><td><div>2601:647:4401:6e55:ac85:3822:3d11:2807</div></td></tr><tr><td><div>10.0.1.10</div></td></tr><tr><td><div>fe80::ac85:3822:3d11:2807%4</div></td></tr><tr><td><div>Atahan-MSI</div></td></tr><tr><td><div>127.0.0.1</div></td></tr></table></div></td></tr><tr><td style="font-weight:bold;vertical-align:top;">web2py_version</td><td style="vertical-align:top;">:</td><td><div>2.12.3-stable+timestamp.2015.08.19.00.18.03</div></td></tr></table></div></td></tr><tr><td style="font-weight:bold;vertical-align:top;">is_https</td><td style="vertical-align:top;">:</td><td><div>False</div></td></tr><tr><td style="font-weight:bold;vertical-align:top;">is_local</td><td style="vertical-align:top;">:</td><td><div>True</div></td></tr><tr><td style="font-weight:bold;vertical-align:top;">is_restful</td><td style="vertical-align:top;">:</td><td><div>False</div></td></tr><tr><td style="font-weight:bold;vertical-align:top;">is_sheduler</td><td style="vertical-align:top;">:</td><td><div>None</div></td></tr><tr><td style="font-weight:bold;vertical-align:top;">is_shell</td><td style="vertical-align:top;">:</td><td><div>None</div></td></tr><tr><td style="font-weight:bold;vertical-align:top;">now</td><td style="vertical-align:top;">:</td><td><div>datetime.datetime(2015, 12, 13, 16, 46, 41, 178000)</div></td></tr><tr><td style="font-weight:bold;vertical-align:top;">raw_args</td><td style="vertical-align:top;">:</td><td><div></div></td></tr><tr><td style="font-weight:bold;vertical-align:top;">raw_extension</td><td style="vertical-align:top;">:</td><td><div>None</div></td></tr><tr><td style="font-weight:bold;vertical-align:top;">url</td><td style="vertical-align:top;">:</td><td><div>/tidetest/default/fillDBFromCSV</div></td></tr><tr><td style="font-weight:bold;vertical-align:top;">utcnow</td><td style="vertical-align:top;">:</td><td><div>datetime.datetime(2015, 12, 14, 0, 46, 41, 178000)</div></td></tr><tr><td style="font-weight:bold;vertical-align:top;">wsgi</td><td style="vertical-align:top;">:</td><td><div>&lt;gluon.main.LazyWSGI object at 0x0A5D93F0&gt;</div></td></tr></table></div>'
tRp62
sS'frames'
p63
(lp64
(dp65
S'file'
p66
S'C:\\Users\\Atahan\\Desktop\\WB\\Tidenow\\gluon\\restricted.py'
p67
sS'dump'
p68
(dp69
S'environment'
p70
S"{'A': <class 'gluon.html.A'>, 'ANY_OF': <class 'gluon.validators.ANY_OF'>, 'ASSIGNJS': <function ASSIGNJS>, 'AppConfig': <function AppConfig>, 'Auth': <class 'gluon.tools.Auth'>, 'B': <class 'gluon.html.B'>, 'BEAUTIFY': <class 'gluon.html.BEAUTIFY'>, 'BODY': <class 'gluon.html.BODY'>, 'BR': <class 'gluon.html.BR'>, 'BUTTON': <class 'gluon.html.BUTTON'>, ...}"
p71
sS'ccode'
p72
S'<code object <module> at 0AF0BD58, file "C:\\User...ations\\tidetest\\controllers/default.py", line 10>'
p73
ssS'lnum'
p74
I227
sS'lines'
p75
(dp76
I224
S'            ccode = code'
p77
sI225
S'        else:'
p78
sI226
S'            ccode = compile2(code, layer)'
p79
sI227
S'        exec ccode in environment'
p80
sI228
S'    except HTTP:'
p81
sI229
S'        raise'
p82
sI230
S'    except RestrictedError:'
p83
sI231
S'        # do not encapsulate (obfuscate) the original RestrictedError'
p84
sI222
S'    try:'
p85
sI223
S'        if isinstance(code, types.CodeType):'
p86
ssS'call'
p87
S"(code='# -*- coding: utf-8 -*-\\n# this file is released ...\\n\\nresponse._vars=response._caller(fillDBFromCSV)\\n', environment={'A': <class 'gluon.html.A'>, 'ANY_OF': <class 'gluon.validators.ANY_OF'>, 'ASSIGNJS': <function ASSIGNJS>, 'AppConfig': <function AppConfig>, 'Auth': <class 'gluon.tools.Auth'>, 'B': <class 'gluon.html.B'>, 'BEAUTIFY': <class 'gluon.html.BEAUTIFY'>, 'BODY': <class 'gluon.html.BODY'>, 'BR': <class 'gluon.html.BR'>, 'BUTTON': <class 'gluon.html.BUTTON'>, ...}, layer=r'C:\\Users\\Atahan\\Desktop\\WB\\Tidenow\\applications\\tidetest\\controllers/default.py')"
p88
sS'func'
p89
S'restricted'
p90
sa(dp91
g66
S'C:\\Users\\Atahan\\Desktop\\WB\\Tidenow\\applications\\tidetest\\controllers\\default.py'
p92
sg68
(dp93
sg74
I223
sg75
(dp94
I212
S'def call():'
p95
sI213
S'    """'
p96
sI214
S'    exposes services. for example:'
p97
sI215
S'    http://..../[app]/default/call/jsonrpc'
p98
sI216
S'    decorate with @services.jsonrpc the functions to expose'
p99
sI217
S'    supports xml, json, xmlrpc, jsonrpc, amfrpc, rss, csv'
p100
sI218
S'    """'
p101
sI219
S'    return service()'
p102
sI220
S''
sI221
S''
ssg87
S'()'
p103
sg89
S'<module>'
p104
sa(dp105
g66
S'C:\\Users\\Atahan\\Desktop\\WB\\Tidenow\\gluon\\globals.py'
p106
sg68
(dp107
S'self'
p108
S'undefined'
p109
sS'f'
S'<function fillDBFromCSV>'
p110
ssg74
I412
sg75
(dp111
I416
S"        self.generic_patterns = ['*']"
p112
sI407
S"        self.flash = ''            # used by the default view layout"
p113
sI408
S'        self.meta = Storage()      # used by web2py_ajax.html'
p114
sI409
S'        self.menu = []             # used by the default view layout'
p115
sI410
S'        self.files = []            # used by web2py_ajax.html'
p116
sI411
S'        self._vars = None'
p117
sI412
S'        self._caller = lambda f: f()'
p118
sI413
S'        self._view_environment = None'
p119
sI414
S'        self._custom_commit = None'
p120
sI415
S'        self._custom_rollback = None'
p121
ssg87
S'(f=<function fillDBFromCSV>)'
p122
sg89
S'<lambda>'
p123
sa(dp124
g66
S'C:\\Users\\Atahan\\Desktop\\WB\\Tidenow\\applications\\tidetest\\controllers\\default.py'
p125
sg68
(dp126
S'cuisine'
p127
S"'Brazil'"
p128
sS'row'
p129
S"['Pampas', '1', '1', '1', '6', '0', '', '11:30 AM - 2:00 PM & 5:00 - 9:30 PM', 'Brazil', '0', '1', '1']"
p130
ssg74
I136
sg75
(dp131
I131
S'            openTime = row[7]'
p132
sI132
S'            cuisine = row[8]'
p133
sI133
S'            isopen = row[9]'
p134
sI134
S'            member = row[10]'
p135
sI135
S'            db.restaurants.insert(name=name, region=region, restaurant_id=res_id, day_time=day, hour_time=hour, min_time=minute, open_hours_display=openTime,'
p136
sI136
S'                                  cuisine=cuisine, isopen_correct=isopen, member_restaurant=member, discount=discount)'
p137
sI137
S''
sI138
S'        rownum += 1'
p138
sI139
S'    csvFile.close()'
p139
sI140
S'    return "Success"'
p140
ssg87
S'()'
p141
sg89
S'fillDBFromCSV'
p142
sa(dp143
g66
S'C:\\Users\\Atahan\\Desktop\\WB\\Tidenow\\gluon\\packages\\dal\\pydal\\objects.py'
p144
sg68
(dp145
S'self._listify'
p146
S'<bound method Table._listify of <Table restauran...pen_correct,member_restaurant,logoURL,discount)>>'
p147
sS'fields'
p148
S"{'cuisine': 'Brazil', 'day_time': '1', 'description': '', 'discount': -999, 'hour_time': '6', 'isopen_correct': '0', 'logoURL': 'extra/static/logos/placeholder_logo.jpg', 'member_restaurant': '1', 'min_time': '0', 'name': 'Pampas', ...}"
p149
sS'self'
p150
S'<Table restaurants (id,name,description,region,r...open_correct,member_restaurant,logoURL,discount)>'
p151
sS'ret'
p152
g109
sS'self._db._adapter'
p153
S'<pydal.adapters.sqlite.SQLiteAdapter object>'
p154
sS'self._db._adapter.insert'
p155
S'<bound method SQLiteAdapter.insert of <pydal.adapters.sqlite.SQLiteAdapter object>>'
p156
sS'self._db'
p157
S'<DAL uri="sqlite://storage.sqlite">'
p158
ssg74
I712
sg75
(dp159
I707
S'    def insert(self, **fields):'
p160
sI708
S'        fields = self._defaults(fields)'
p161
sI709
S'        self._attempt_upload(fields)'
p162
sI710
S'        if any(f(fields) for f in self._before_insert):'
p163
sI711
S'            return 0'
p164
sI712
S'        ret = self._db._adapter.insert(self, self._listify(fields))'
p165
sI713
S'        if ret and self._after_insert:'
p166
sI714
S'            fields = Row(fields)'
p167
sI715
S'            [f(fields, ret) for f in self._after_insert]'
p168
sI716
S'        return ret'
p169
ssg87
S"(self=<Table restaurants (id,name,description,region,r...open_correct,member_restaurant,logoURL,discount)>, **fields={'cuisine': 'Brazil', 'day_time': '1', 'description': '', 'discount': -999, 'hour_time': '6', 'isopen_correct': '0', 'logoURL': 'extra/static/logos/placeholder_logo.jpg', 'member_restaurant': '1', 'min_time': '0', 'name': 'Pampas', ...})"
p170
sg89
S'insert'
p171
sa(dp172
g66
S'C:\\Users\\Atahan\\Desktop\\WB\\Tidenow\\gluon\\packages\\dal\\pydal\\adapters\\base.py'
p173
sg68
(dp174
S'e'
S"OperationalError('database is locked',)"
p175
ssg74
I739
sg75
(dp176
I736
S'            e = sys.exc_info()[1]'
p177
sI737
S"            if hasattr(table,'_on_insert_error'):"
p178
sI738
S'                return table._on_insert_error(table,fields,e)'
p179
sI739
S'            raise e'
p180
sI740
S"        if hasattr(table, '_primarykey'):"
p181
sI741
S'            mydict = dict([(k[0].name, k[1]) for k in fields if k[0].name in table._primarykey])'
p182
sI742
S'            if mydict != {}:'
p183
sI743
S'                return mydict'
p184
sI734
S'            self.execute(query)'
p185
sI735
S'        except Exception:'
p186
ssg87
S"(self=<pydal.adapters.sqlite.SQLiteAdapter object>, table=<Table restaurants (id,name,description,region,r...open_correct,member_restaurant,logoURL,discount)>, fields=[(<pydal.objects.Field object>, '11:30 AM - 2:00 PM & 5:00 - 9:30 PM'), (<pydal.objects.Field object>, '1'), (<pydal.objects.Field object>, 'Pampas'), (<pydal.objects.Field object>, 'Brazil'), (<pydal.objects.Field object>, '1'), (<pydal.objects.Field object>, '1'), (<pydal.objects.Field object>, ''), (<pydal.objects.Field object>, '0'), (<pydal.objects.Field object>, -999), (<pydal.objects.Field object>, 'extra/static/logos/placeholder_logo.jpg'), (<pydal.objects.Field object>, '0'), (<pydal.objects.Field object>, '1'), (<pydal.objects.Field object>, '6')])"
p187
sg89
g171
sasS'pyver'
p188
S'Python 2.7.10: C:\\Python27\\python.exe (prefix: C:\\Python27)'
p189
sS'session'
p190
g61
(S'sA\x01\x00\x00<div><table><tr><td style="font-weight:bold;vertical-align:top;">last_orderby</td><td style="vertical-align:top;">:</td><td><div>None</div></td></tr><tr><td style="font-weight:bold;vertical-align:top;">last_query</td><td style="vertical-align:top;">:</td><td><div>db.currentDiscounts.id&gt;0</div></td></tr></table></div>'
tRp191
sS'etype'
p192
S"<class 'sqlite3.OperationalError'>"
p193
sS'date'
p194
S'Sun Dec 13 16:46:46 2015'
p195
sS'response'
p196
g61
(S's\xcd?\x00\x00<div><table><tr><td style="font-weight:bold;vertical-align:top;">body</td><td style="vertical-align:top;">:</td><td><div>&lt;cStringIO.StringO object at 0x0A5D9340&gt;</div></td></tr><tr><td style="font-weight:bold;vertical-align:top;">cookies</td><td style="vertical-align:top;">:</td><td><div><table><tr><td style="font-weight:bold;vertical-align:top;">session_id_tidetest</td><td style="vertical-align:top;">:</td><td><div>127.0.0.1-ae4328a1-542d-4df1-8123-8e82f09c5ea2<table><tr><td style="font-weight:bold;vertical-align:top;">comment</td><td style="vertical-align:top;">:</td><td><div></div></td></tr><tr><td style="font-weight:bold;vertical-align:top;">domain</td><td style="vertical-align:top;">:</td><td><div></div></td></tr><tr><td style="font-weight:bold;vertical-align:top;">expires</td><td style="vertical-align:top;">:</td><td><div></div></td></tr><tr><td style="font-weight:bold;vertical-align:top;">httponly</td><td style="vertical-align:top;">:</td><td><div></div></td></tr><tr><td style="font-weight:bold;vertical-align:top;">max-age</td><td style="vertical-align:top;">:</td><td><div></div></td></tr><tr><td style="font-weight:bold;vertical-align:top;">path</td><td style="vertical-align:top;">:</td><td><div>/</div></td></tr><tr><td style="font-weight:bold;vertical-align:top;">secure</td><td style="vertical-align:top;">:</td><td><div></div></td></tr><tr><td style="font-weight:bold;vertical-align:top;">version</td><td style="vertical-align:top;">:</td><td><div></div></td></tr></table></div></td></tr></table></div></td></tr><tr><td style="font-weight:bold;vertical-align:top;">delimiters</td><td style="vertical-align:top;">:</td><td><div><table><tr><td><div>{{</div></td></tr><tr><td><div>}}</div></td></tr></table></div></td></tr><tr><td style="font-weight:bold;vertical-align:top;">files</td><td style="vertical-align:top;">:</td><td><div><table></table></div></td></tr><tr><td style="font-weight:bold;vertical-align:top;">flash</td><td style="vertical-align:top;">:</td><td><div></div></td></tr><tr><td style="font-weight:bold;vertical-align:top;">form_label_separator</td><td style="vertical-align:top;">:</td><td><div></div></td></tr><tr><td style="font-weight:bold;vertical-align:top;">formstyle</td><td style="vertical-align:top;">:</td><td><div>bootstrap3_inline</div></td></tr><tr><td style="font-weight:bold;vertical-align:top;">generic_patterns</td><td style="vertical-align:top;">:</td><td><div><table><tr><td><div>*</div></td></tr></table></div></td></tr><tr><td style="font-weight:bold;vertical-align:top;">google_analytics_id</td><td style="vertical-align:top;">:</td><td><div>None</div></td></tr><tr><td style="font-weight:bold;vertical-align:top;">headers</td><td style="vertical-align:top;">:</td><td><div><table><tr><td style="font-weight:bold;vertical-align:top;">X-Powered-By</td><td style="vertical-align:top;">:</td><td><div>web2py</div></td></tr></table></div></td></tr><tr><td style="font-weight:bold;vertical-align:top;">logo</td><td style="vertical-align:top;">:</td><td><div><a class="navbar-brand" href="http://www.web2py.com/" id="web2py-logo"><b>web<span>2</span>py</b>&trade;&nbsp;</a></div></td></tr><tr><td style="font-weight:bold;vertical-align:top;">menu</td><td style="vertical-align:top;">:</td><td><div><table><tr><td><div><table><tr><td><div>Home</div></td></tr><tr><td><div>False</div></td></tr><tr><td><div>/tidetest/default/index</div></td></tr><tr><td><div><table></table></div></td></tr></table></div></td></tr><tr><td><div><table><tr><td><div>My Sites</div></td></tr><tr><td><div>False</div></td></tr><tr><td><div>/admin/default/site</div></td></tr></table></div></td></tr><tr><td><div><table><tr><td><div>This App</div></td></tr><tr><td><div>False</div></td></tr><tr><td><div>#</div></td></tr><tr><td><div><table><tr><td><div><table><tr><td><div>Design</div></td></tr><tr><td><div>False</div></td></tr><tr><td><div>/admin/default/design/tidetest</div></td></tr></table></div></td></tr><tr><td><div><li class="divider"></li></div></td></tr><tr><td><div><table><tr><td><div>Controller</div></td></tr><tr><td><div>False</div></td></tr><tr><td><div>/admin/default/edit/tidetest/controllers/default.py</div></td></tr></table></div></td></tr><tr><td><div><table><tr><td><div>View</div></td></tr><tr><td><div>False</div></td></tr><tr><td><div>/admin/default/edit/tidetest/views/default/fillDBFromCSV.html</div></td></tr></table></div></td></tr><tr><td><div><table><tr><td><div>DB Model</div></td></tr><tr><td><div>False</div></td></tr><tr><td><div>/admin/default/edit/tidetest/models/db.py</div></td></tr></table></div></td></tr><tr><td><div><table><tr><td><div>Menu Model</div></td></tr><tr><td><div>False</div></td></tr><tr><td><div>/admin/default/edit/tidetest/models/menu.py</div></td></tr></table></div></td></tr><tr><td><div><table><tr><td><div>Config.ini</div></td></tr><tr><td><div>False</div></td></tr><tr><td><div>/admin/default/edit/tidetest/private/appconfig.ini</div></td></tr></table></div></td></tr><tr><td><div><table><tr><td><div>Layout</div></td></tr><tr><td><div>False</div></td></tr><tr><td><div>/admin/default/edit/tidetest/views/layout.html</div></td></tr></table></div></td></tr><tr><td><div><table><tr><td><div>Stylesheet</div></td></tr><tr><td><div>False</div></td></tr><tr><td><div>/admin/default/edit/tidetest/static/css/web2py-bootstrap3.css</div></td></tr></table></div></td></tr><tr><td><div><table><tr><td><div>Database</div></td></tr><tr><td><div>False</div></td></tr><tr><td><div>/tidetest/appadmin/index</div></td></tr></table></div></td></tr><tr><td><div><table><tr><td><div>Errors</div></td></tr><tr><td><div>False</div></td></tr><tr><td><div>/admin/default/errors/tidetest</div></td></tr></table></div></td></tr><tr><td><div><table><tr><td><div>About</div></td></tr><tr><td><div>False</div></td></tr><tr><td><div>/admin/default/about/tidetest</div></td></tr></table></div></td></tr></table></div></td></tr></table></div></td></tr><tr><td><div><table><tr><td><div>web2py.com</div></td></tr><tr><td><div>False</div></td></tr><tr><td><div>#</div></td></tr><tr><td><div><table><tr><td><div><table><tr><td><div>Download</div></td></tr><tr><td><div>False</div></td></tr><tr><td><div>http://www.web2py.com/examples/default/download</div></td></tr></table></div></td></tr><tr><td><div><table><tr><td><div>Support</div></td></tr><tr><td><div>False</div></td></tr><tr><td><div>http://www.web2py.com/examples/default/support</div></td></tr></table></div></td></tr><tr><td><div><table><tr><td><div>Demo</div></td></tr><tr><td><div>False</div></td></tr><tr><td><div>http://web2py.com/demo_admin</div></td></tr></table></div></td></tr><tr><td><div><table><tr><td><div>Quick Examples</div></td></tr><tr><td><div>False</div></td></tr><tr><td><div>http://web2py.com/examples/default/examples</div></td></tr></table></div></td></tr><tr><td><div><table><tr><td><div>FAQ</div></td></tr><tr><td><div>False</div></td></tr><tr><td><div>http://web2py.com/AlterEgo</div></td></tr></table></div></td></tr><tr><td><div><table><tr><td><div>Videos</div></td></tr><tr><td><div>False</div></td></tr><tr><td><div>http://www.web2py.com/examples/default/videos/</div></td></tr></table></div></td></tr><tr><td><div><table><tr><td><div>Free Applications</div></td></tr><tr><td><div>False</div></td></tr><tr><td><div>http://web2py.com/appliances</div></td></tr></table></div></td></tr><tr><td><div><table><tr><td><div>Plugins</div></td></tr><tr><td><div>False</div></td></tr><tr><td><div>http://web2py.com/plugins</div></td></tr></table></div></td></tr><tr><td><div><table><tr><td><div>Recipes</div></td></tr><tr><td><div>False</div></td></tr><tr><td><div>http://web2pyslices.com/</div></td></tr></table></div></td></tr></table></div></td></tr></table></div></td></tr><tr><td><div><table><tr><td><div>Documentation</div></td></tr><tr><td><div>False</div></td></tr><tr><td><div>#</div></td></tr><tr><td><div><table><tr><td><div><table><tr><td><div>Online book</div></td></tr><tr><td><div>False</div></td></tr><tr><td><div>http://www.web2py.com/book</div></td></tr></table></div></td></tr><tr><td><div><li class="divider"></li></div></td></tr><tr><td><div><table><tr><td><div>Preface</div></td></tr><tr><td><div>False</div></td></tr><tr><td><div>http://www.web2py.com/book/default/chapter/00</div></td></tr></table></div></td></tr><tr><td><div><table><tr><td><div>Introduction</div></td></tr><tr><td><div>False</div></td></tr><tr><td><div>http://www.web2py.com/book/default/chapter/01</div></td></tr></table></div></td></tr><tr><td><div><table><tr><td><div>Python</div></td></tr><tr><td><div>False</div></td></tr><tr><td><div>http://www.web2py.com/book/default/chapter/02</div></td></tr></table></div></td></tr><tr><td><div><table><tr><td><div>Overview</div></td></tr><tr><td><div>False</div></td></tr><tr><td><div>http://www.web2py.com/book/default/chapter/03</div></td></tr></table></div></td></tr><tr><td><div><table><tr><td><div>The Core</div></td></tr><tr><td><div>False</div></td></tr><tr><td><div>http://www.web2py.com/book/default/chapter/04</div></td></tr></table></div></td></tr><tr><td><div><table><tr><td><div>The Views</div></td></tr><tr><td><div>False</div></td></tr><tr><td><div>http://www.web2py.com/book/default/chapter/05</div></td></tr></table></div></td></tr><tr><td><div><table><tr><td><div>Database</div></td></tr><tr><td><div>False</div></td></tr><tr><td><div>http://www.web2py.com/book/default/chapter/06</div></td></tr></table></div></td></tr><tr><td><div><table><tr><td><div>Forms and Validators</div></td></tr><tr><td><div>False</div></td></tr><tr><td><div>http://www.web2py.com/book/default/chapter/07</div></td></tr></table></div></td></tr><tr><td><div><table><tr><td><div>Email and SMS</div></td></tr><tr><td><div>False</div></td></tr><tr><td><div>http://www.web2py.com/book/default/chapter/08</div></td></tr></table></div></td></tr><tr><td><div><table><tr><td><div>Access Control</div></td></tr><tr><td><div>False</div></td></tr><tr><td><div>http://www.web2py.com/book/default/chapter/09</div></td></tr></table></div></td></tr><tr><td><div><table><tr><td><div>Services</div></td></tr><tr><td><div>False</div></td></tr><tr><td><div>http://www.web2py.com/book/default/chapter/10</div></td></tr></table></div></td></tr><tr><td><div><table><tr><td><div>Ajax Recipes</div></td></tr><tr><td><div>False</div></td></tr><tr><td><div>http://www.web2py.com/book/default/chapter/11</div></td></tr></table></div></td></tr><tr><td><div><table><tr><td><div>Components and Plugins</div></td></tr><tr><td><div>False</div></td></tr><tr><td><div>http://www.web2py.com/book/default/chapter/12</div></td></tr></table></div></td></tr><tr><td><div><table><tr><td><div>Deployment Recipes</div></td></tr><tr><td><div>False</div></td></tr><tr><td><div>http://www.web2py.com/book/default/chapter/13</div></td></tr></table></div></td></tr><tr><td><div><table><tr><td><div>Other Recipes</div></td></tr><tr><td><div>False</div></td></tr><tr><td><div>http://www.web2py.com/book/default/chapter/14</div></td></tr></table></div></td></tr><tr><td><div><table><tr><td><div>Helping web2py</div></td></tr><tr><td><div>False</div></td></tr><tr><td><div>http://www.web2py.com/book/default/chapter/15</div></td></tr></table></div></td></tr><tr><td><div><table><tr><td><div>Buy web2py\'s book</div></td></tr><tr><td><div>False</div></td></tr><tr><td><div>http://stores.lulu.com/web2py</div></td></tr></table></div></td></tr></table></div></td></tr></table></div></td></tr><tr><td><div><table><tr><td><div>Community</div></td></tr><tr><td><div>False</div></td></tr><tr><td><div>None</div></td></tr><tr><td><div><table><tr><td><div><table><tr><td><div>Groups</div></td></tr><tr><td><div>False</div></td></tr><tr><td><div>http://www.web2py.com/examples/default/usergroups</div></td></tr></table></div></td></tr><tr><td><div><table><tr><td><div>Twitter</div></td></tr><tr><td><div>False</div></td></tr><tr><td><div>http://twitter.com/web2py</div></td></tr></table></div></td></tr><tr><td><div><table><tr><td><div>Live Chat</div></td></tr><tr><td><div>False</div></td></tr><tr><td><div>http://webchat.freenode.net/?channels=web2py</div></td></tr></table></div></td></tr></table></div></td></tr></table></div></td></tr></table></div></td></tr><tr><td style="font-weight:bold;vertical-align:top;">meta</td><td style="vertical-align:top;">:</td><td><div><table><tr><td style="font-weight:bold;vertical-align:top;">author</td><td style="vertical-align:top;">:</td><td><div>Your Name &lt;you@example.com&gt;</div></td></tr><tr><td style="font-weight:bold;vertical-align:top;">description</td><td style="vertical-align:top;">:</td><td><div>a cool new app</div></td></tr><tr><td style="font-weight:bold;vertical-align:top;">generator</td><td style="vertical-align:top;">:</td><td><div>Web2py Web Framework</div></td></tr><tr><td style="font-weight:bold;vertical-align:top;">keywords</td><td style="vertical-align:top;">:</td><td><div>web2py, python, framework</div></td></tr></table></div></td></tr><tr><td style="font-weight:bold;vertical-align:top;">models_to_run</td><td style="vertical-align:top;">:</td><td><div><table><tr><td><div>^\\w+\\.py$</div></td></tr><tr><td><div>^default/\\w+\\.py$</div></td></tr><tr><td><div>^default/fillDBFromCSV/\\w+\\.py$</div></td></tr></table></div></td></tr><tr><td style="font-weight:bold;vertical-align:top;">postprocessing</td><td style="vertical-align:top;">:</td><td><div><table></table></div></td></tr><tr><td style="font-weight:bold;vertical-align:top;">session_client</td><td style="vertical-align:top;">:</td><td><div>127.0.0.1</div></td></tr><tr><td style="font-weight:bold;vertical-align:top;">session_cookie_compression_level</td><td style="vertical-align:top;">:</td><td><div>None</div></td></tr><tr><td style="font-weight:bold;vertical-align:top;">session_cookie_expires</td><td style="vertical-align:top;">:</td><td><div>None</div></td></tr><tr><td style="font-weight:bold;vertical-align:top;">session_cookie_key</td><td style="vertical-align:top;">:</td><td><div>None</div></td></tr><tr><td style="font-weight:bold;vertical-align:top;">session_data_name</td><td style="vertical-align:top;">:</td><td><div>session_data_tidetest</div></td></tr><tr><td style="font-weight:bold;vertical-align:top;">session_file</td><td style="vertical-align:top;">:</td><td><div>&lt;open file &#x27;C:\\\\Users\\\\Atahan\\\\Desktop\\\\WB\\\\Tidenow\\\\applications\\\\tidetest\\\\sessions\\\\1da\\\\1c1\\\\127.0.0.1-ae4328a1-542d-4df1-8123-8e82f09c5ea2&#x27;, mode &#x27;rb+&#x27; at 0x0830CA18&gt;</div></td></tr><tr><td style="font-weight:bold;vertical-align:top;">session_filename</td><td style="vertical-align:top;">:</td><td><div>C:\\Users\\Atahan\\Desktop\\WB\\Tidenow\\applications\\tidetest\\sessions\\127.0.0.1-ae4328a1-542d-4df1-8123-8e82f09c5ea2</div></td></tr><tr><td style="font-weight:bold;vertical-align:top;">session_hash</td><td style="vertical-align:top;">:</td><td><div>e168431561dc7da877a00732fd18164f</div></td></tr><tr><td style="font-weight:bold;vertical-align:top;">session_id</td><td style="vertical-align:top;">:</td><td><div>127.0.0.1-ae4328a1-542d-4df1-8123-8e82f09c5ea2</div></td></tr><tr><td style="font-weight:bold;vertical-align:top;">session_id_name</td><td style="vertical-align:top;">:</td><td><div>session_id_tidetest</div></td></tr><tr><td style="font-weight:bold;vertical-align:top;">session_locked</td><td style="vertical-align:top;">:</td><td><div>True</div></td></tr><tr><td style="font-weight:bold;vertical-align:top;">session_masterapp</td><td style="vertical-align:top;">:</td><td><div>tidetest</div></td></tr><tr><td style="font-weight:bold;vertical-align:top;">session_new</td><td style="vertical-align:top;">:</td><td><div>False</div></td></tr><tr><td style="font-weight:bold;vertical-align:top;">session_storage_type</td><td style="vertical-align:top;">:</td><td><div>file</div></td></tr><tr><td style="font-weight:bold;vertical-align:top;">status</td><td style="vertical-align:top;">:</td><td><div>200</div></td></tr><tr><td style="font-weight:bold;vertical-align:top;">subtitle</td><td style="vertical-align:top;">:</td><td><div></div></td></tr><tr><td style="font-weight:bold;vertical-align:top;">title</td><td style="vertical-align:top;">:</td><td><div>Tidetest</div></td></tr><tr><td style="font-weight:bold;vertical-align:top;">view</td><td style="vertical-align:top;">:</td><td><div>default/fillDBFromCSV.html</div></td></tr></table></div>'
tRp197
sS'locals'
p198
(dp199
S'query'
p200
S'"INSERT INTO restaurants(open_hours_display,day_t...xtra/static/logos/placeholder_logo.jpg\',0,\'1\',6);"'
p201
sS'self'
p202
S'<pydal.adapters.sqlite.SQLiteAdapter object>'
p203
sS'e'
S"OperationalError('database is locked',)"
p204
sS'fields'
p205
S"[(<pydal.objects.Field object>, '11:30 AM - 2:00 PM & 5:00 - 9:30 PM'), (<pydal.objects.Field object>, '1'), (<pydal.objects.Field object>, 'Pampas'), (<pydal.objects.Field object>, 'Brazil'), (<pydal.objects.Field object>, '1'), (<pydal.objects.Field object>, '1'), (<pydal.objects.Field object>, ''), (<pydal.objects.Field object>, '0'), (<pydal.objects.Field object>, -999), (<pydal.objects.Field object>, 'extra/static/logos/placeholder_logo.jpg'), (<pydal.objects.Field object>, '0'), (<pydal.objects.Field object>, '1'), (<pydal.objects.Field object>, '6')]"
p206
sS'table'
p207
S'<Table restaurants (id,name,description,region,r...open_correct,member_restaurant,logoURL,discount)>'
p208
sssS'traceback'
p209
S'Traceback (most recent call last):\n  File "C:\\Users\\Atahan\\Desktop\\WB\\Tidenow\\gluon\\restricted.py", line 227, in restricted\n    exec ccode in environment\n  File "C:\\Users\\Atahan\\Desktop\\WB\\Tidenow\\applications\\tidetest\\controllers/default.py", line 223, in <module>\n  File "C:\\Users\\Atahan\\Desktop\\WB\\Tidenow\\gluon\\globals.py", line 412, in <lambda>\n    self._caller = lambda f: f()\n  File "C:\\Users\\Atahan\\Desktop\\WB\\Tidenow\\applications\\tidetest\\controllers/default.py", line 136, in fillDBFromCSV\n    cuisine=cuisine, isopen_correct=isopen, member_restaurant=member, discount=discount)\n  File "C:\\Users\\Atahan\\Desktop\\WB\\Tidenow\\gluon\\packages\\dal\\pydal\\objects.py", line 712, in insert\n    ret = self._db._adapter.insert(self, self._listify(fields))\n  File "C:\\Users\\Atahan\\Desktop\\WB\\Tidenow\\gluon\\packages\\dal\\pydal\\adapters\\base.py", line 739, in insert\n    raise e\nOperationalError: database is locked\n'
p210
s.