(dp1
S'output'
p2
S"<class 'urllib2.URLError'> <urlopen error [SSL: CERTIFICATE_VERIFY_FAILED] certificate verify failed (_ssl.c:590)>"
p3
sS'layer'
p4
S'C:\\Users\\Atahan\\Desktop\\WB\\Tidenow\\applications\\tidetest\\controllers/default.py'
p5
sS'code'
p6
S'# -*- coding: utf-8 -*-\n# this file is released under public domain and you can use without limitations\n\n#########################################################################\n## This is a sample controller\n## - index is the default action of any application\n## - user is required for authentication and authorization\n## - download is for downloading files uploaded in the db (does streaming)\n#########################################################################\nfrom gluon import current\nimport logging\n\ndef index():\n    """\n    example action using the internationalization operator T and flash\n    rendered by views/default/index.html or views/generic.html\n\n    if you need a simple wiki simply replace the two lines below with:\n    return auth.wiki()\n    """\n    response.flash = T("Hello World")\n    return dict(message=T(\'Welcome to web2py!\'))\n\ndef index2():\n    """\n    example action using the internationalization operator T and flash\n    rendered by views/default/index.html or views/generic.html\n\n    if you need a simple wiki simply replace the two lines below with:\n    return auth.wiki()\n    """\n    #db = current.db\n    restaurantList = db(db.restaurants.id>0).select(db.restaurants.ALL, orderby=~db.restaurants.discount)\n    return dict(allRest=restaurantList)\n\ndef restaurant():\n    clickedRestaurant = request.args[0]\n\n    # The argument will have dashes instead of spaces. Replace them\n    clickedRestaurant = clickedRestaurant.replace("-"," ")\n    restaurantInfo = db(db.restaurants.name==clickedRestaurant).select(db.restaurants.ALL, orderby=~db.restaurants.discount, limitby=(0,1)).first()\n    paymentStatus = "Not Done"\n    if restaurantInfo:\n        #Stripe handling:\n        from gluon.contrib.stripe import Stripe\n        key="sk_test_GCahWSkWRdvnTUzF8cHDUUKQ"\n        testPostVars = request.post_vars\n        logging.info("In pay3 stuff: " + str(testPostVars))\n        if testPostVars[\'stripeToken\']:\n            token = request.post_vars[\'stripeToken\']\n            amountTotal = int(request.post_vars[\'inputAmount\'])*100\n            d = Stripe(key).charge(\n                       amount=amountTotal,\n                       currency=\'usd\',\n                       token=token,\n                       description=\'test charge\')\n            logging.info(str(d))\n            paymentStatus = d[\'status\'].title()\n        return dict(singleRest=restaurantInfo,status=paymentStatus)\n    else:\n        return "No restaurant with name: " + clickedRestaurant\n\ndef pay3():\n    from gluon.contrib.stripe import Stripe\n    key="sk_test_GCahWSkWRdvnTUzF8cHDUUKQ"\n    testPostVars = request.post_vars\n    logging.info("In pay3 stuff: " + str(testPostVars))\n    if testPostVars:\n        token = request.post_vars[\'stripeToken\']\n        amountTotal = int(request.post_vars[\'amount\'])*100\n        d = Stripe(key).charge(\n                   amount=amountTotal,\n                   currency=\'usd\',\n                   token=token,\n                   description=\'test charge\')\n        logging.info(str(d))\n        return dict(form=d)\n    return dict(form=testPostVars)\n\ndef fillDummyDB():\n    # This fills the DB with dummy restaurants\n    #db = current.db\n    db.restaurants.insert(name="Ephesus", description="Turkish and Greek", logoURL="extra/static/logos/ephesus_logo.png", discount=31)\n    db.restaurants.insert(name="Cafe Baklava", description="Mediterranean Grill", logoURL="extra/static/logos/cafe_baklava_logo.png", discount=43)\n    db.restaurants.insert(name="Evvia", description="Greek", logoURL="extra/static/logos/evvia.png", discount=12)\n    db.restaurants.insert(name="Galata Bistro", description="Mediterranean", logoURL="extra/static/logos/galata_logo.png", discount=26)\n    db.restaurants.insert(name="Olympus", description="Bakery, Breakfast & Lunch", logoURL="extra/static/logos/olympus_logo.png", discount=17)\n    db.restaurants.insert(name="Shana", description="Thai", logoURL="extra/static/logos/shana.png", discount=49)\n    db.restaurants.insert(name="Tamarine", description="Vietnamese", logoURL="extra/static/logos/tamarine.png", discount=14)\n    #db.restaurants.insert(name="Joya", description="Latin American, Tapas Bar", logoURL="extra/static/logos/joya.png", discount=36)\n    return "Success"\n\ndef fillDBFromCSV():\n    import csv\n    import urllib2\n    response = urllib2.urlopen(\'https://drive.google.com/uc?export=download&id=0B4Nh6ak8KjZBdktUS0N2cVVIcUE\')\n    fullFile = response.read()\n    return str(fullFile)\n    csvFile = open("static/files/site_database_dec12.csv")\n    reader = csv.reader(csvFile)\n    rownum = 0\n    resString = ""\n    for row in reader:\n        # Save header row.\n        if rownum == 4:\n            return resString\n        if rownum == 0:\n            header = row\n        else:\n            colnum = 0\n            for col in row:\n                resString = resString + " " +str(col)\n                colnum += 1\n        rownum += 1\n    csvFile.close()\n\n\ndef clearDB():\n    db(db.restaurants.id>0).delete()\n    return "DB cleared."\n\ndef user():\n    """\n    exposes:\n    http://..../[app]/default/user/login\n    http://..../[app]/default/user/logout\n    http://..../[app]/default/user/register\n    http://..../[app]/default/user/profile\n    http://..../[app]/default/user/retrieve_password\n    http://..../[app]/default/user/change_password\n    http://..../[app]/default/user/manage_users (requires membership in\n    http://..../[app]/default/user/bulk_register\n    use @auth.requires_login()\n        @auth.requires_membership(\'group name\')\n        @auth.requires_permission(\'read\',\'table name\',record_id)\n    to decorate functions that need access control\n    """\n    return dict(form=auth())\n\n\n@cache.action()\ndef download():\n    """\n    allows downloading of uploaded files\n    http://..../[app]/default/download/[filename]\n    """\n    return response.download(request, db)\n\n\ndef call():\n    """\n    exposes services. for example:\n    http://..../[app]/default/call/jsonrpc\n    decorate with @services.jsonrpc the functions to expose\n    supports xml, json, xmlrpc, jsonrpc, amfrpc, rss, csv\n    """\n    return service()\n\n\n\nresponse._vars=response._caller(fillDBFromCSV)\n'
p7
sS'snapshot'
p8
(dp9
S'exception'
p10
(dp11
S'__module__'
p12
S"'urllib2'"
p13
sS'__getslice__'
p14
S"<method-wrapper '__getslice__' of URLError object>"
p15
sS'__str__'
p16
S"<bound method URLError.__str__ of URLError(SSLEr...ILED] certificate verify failed (_ssl.c:590)'),)>"
p17
sS'__reduce__'
p18
S'<built-in method __reduce__ of URLError object>'
p19
sS'__dict__'
p20
S"{'reason': SSLError(1, u'[SSL: CERTIFICATE_VERIFY_FAILED] certificate verify failed (_ssl.c:590)')}"
p21
sS'__sizeof__'
p22
S'<built-in method __sizeof__ of URLError object>'
p23
sS'__weakref__'
p24
S'None'
p25
sS'__init__'
p26
S"<bound method URLError.__init__ of URLError(SSLE...ILED] certificate verify failed (_ssl.c:590)'),)>"
p27
sS'__setattr__'
p28
S"<method-wrapper '__setattr__' of URLError object>"
p29
sS'__reduce_ex__'
p30
S'<built-in method __reduce_ex__ of URLError object>'
p31
sS'__new__'
p32
S'<built-in method __new__ of type object>'
p33
sS'errno'
p34
S'None'
p35
sS'__format__'
p36
S'<built-in method __format__ of URLError object>'
p37
sS'__class__'
p38
S"<class 'urllib2.URLError'>"
p39
sS'filename'
p40
S'None'
p41
sS'__doc__'
p42
S'None'
p43
sS'__getitem__'
p44
S"<method-wrapper '__getitem__' of URLError object>"
p45
sS'__setstate__'
p46
S'<built-in method __setstate__ of URLError object>'
p47
sS'__getattribute__'
p48
S"<method-wrapper '__getattribute__' of URLError object>"
p49
sS'args'
p50
S"(SSLError(1, u'[SSL: CERTIFICATE_VERIFY_FAILED] certificate verify failed (_ssl.c:590)'),)"
p51
sS'reason'
p52
S"SSLError(1, u'[SSL: CERTIFICATE_VERIFY_FAILED] certificate verify failed (_ssl.c:590)')"
p53
sS'__subclasshook__'
p54
S'<built-in method __subclasshook__ of type object>'
p55
sS'__unicode__'
p56
S'<built-in method __unicode__ of URLError object>'
p57
sS'strerror'
p58
S'None'
p59
sS'__delattr__'
p60
S"<method-wrapper '__delattr__' of URLError object>"
p61
sS'__repr__'
p62
S"<method-wrapper '__repr__' of URLError object>"
p63
sS'__hash__'
p64
S"<method-wrapper '__hash__' of URLError object>"
p65
ssS'evalue'
p66
S'<urlopen error [SSL: CERTIFICATE_VERIFY_FAILED] certificate verify failed (_ssl.c:590)>'
p67
sS'request'
p68
cgluon.html
XML_unpickle
p69
(S's\x99_\x00\x00<div><table><tr><td style="font-weight:bold;vertical-align:top;">ajax</td><td style="vertical-align:top;">:</td><td><div>False</div></td></tr><tr><td style="font-weight:bold;vertical-align:top;">application</td><td style="vertical-align:top;">:</td><td><div>tidetest</div></td></tr><tr><td style="font-weight:bold;vertical-align:top;">args</td><td style="vertical-align:top;">:</td><td><div><table></table></div></td></tr><tr><td style="font-weight:bold;vertical-align:top;">cid</td><td style="vertical-align:top;">:</td><td><div>None</div></td></tr><tr><td style="font-weight:bold;vertical-align:top;">client</td><td style="vertical-align:top;">:</td><td><div>127.0.0.1</div></td></tr><tr><td style="font-weight:bold;vertical-align:top;">controller</td><td style="vertical-align:top;">:</td><td><div>default</div></td></tr><tr><td style="font-weight:bold;vertical-align:top;">cookies</td><td style="vertical-align:top;">:</td><td><div><table><tr><td style="font-weight:bold;vertical-align:top;">session_id_admin</td><td style="vertical-align:top;">:</td><td><div>127.0.0.1-f4da5f68-1def-4122-b205-dd06185b7301<table><tr><td style="font-weight:bold;vertical-align:top;">comment</td><td style="vertical-align:top;">:</td><td><div></div></td></tr><tr><td style="font-weight:bold;vertical-align:top;">domain</td><td style="vertical-align:top;">:</td><td><div></div></td></tr><tr><td style="font-weight:bold;vertical-align:top;">expires</td><td style="vertical-align:top;">:</td><td><div></div></td></tr><tr><td style="font-weight:bold;vertical-align:top;">httponly</td><td style="vertical-align:top;">:</td><td><div></div></td></tr><tr><td style="font-weight:bold;vertical-align:top;">max-age</td><td style="vertical-align:top;">:</td><td><div></div></td></tr><tr><td style="font-weight:bold;vertical-align:top;">path</td><td style="vertical-align:top;">:</td><td><div></div></td></tr><tr><td style="font-weight:bold;vertical-align:top;">secure</td><td style="vertical-align:top;">:</td><td><div></div></td></tr><tr><td style="font-weight:bold;vertical-align:top;">version</td><td style="vertical-align:top;">:</td><td><div></div></td></tr></table></div></td></tr><tr><td style="font-weight:bold;vertical-align:top;">session_id_tidetest</td><td style="vertical-align:top;">:</td><td><div>127.0.0.1-2952583c-035d-46cb-ad24-f4acdcaf625d<table><tr><td style="font-weight:bold;vertical-align:top;">comment</td><td style="vertical-align:top;">:</td><td><div></div></td></tr><tr><td style="font-weight:bold;vertical-align:top;">domain</td><td style="vertical-align:top;">:</td><td><div></div></td></tr><tr><td style="font-weight:bold;vertical-align:top;">expires</td><td style="vertical-align:top;">:</td><td><div></div></td></tr><tr><td style="font-weight:bold;vertical-align:top;">httponly</td><td style="vertical-align:top;">:</td><td><div></div></td></tr><tr><td style="font-weight:bold;vertical-align:top;">max-age</td><td style="vertical-align:top;">:</td><td><div></div></td></tr><tr><td style="font-weight:bold;vertical-align:top;">path</td><td style="vertical-align:top;">:</td><td><div></div></td></tr><tr><td style="font-weight:bold;vertical-align:top;">secure</td><td style="vertical-align:top;">:</td><td><div></div></td></tr><tr><td style="font-weight:bold;vertical-align:top;">version</td><td style="vertical-align:top;">:</td><td><div></div></td></tr></table></div></td></tr><tr><td style="font-weight:bold;vertical-align:top;">session_id_welcome</td><td style="vertical-align:top;">:</td><td><div>127.0.0.1-288f0ac6-9851-4fee-92a4-37702a9ecfc2<table><tr><td style="font-weight:bold;vertical-align:top;">comment</td><td style="vertical-align:top;">:</td><td><div></div></td></tr><tr><td style="font-weight:bold;vertical-align:top;">domain</td><td style="vertical-align:top;">:</td><td><div></div></td></tr><tr><td style="font-weight:bold;vertical-align:top;">expires</td><td style="vertical-align:top;">:</td><td><div></div></td></tr><tr><td style="font-weight:bold;vertical-align:top;">httponly</td><td style="vertical-align:top;">:</td><td><div></div></td></tr><tr><td style="font-weight:bold;vertical-align:top;">max-age</td><td style="vertical-align:top;">:</td><td><div></div></td></tr><tr><td style="font-weight:bold;vertical-align:top;">path</td><td style="vertical-align:top;">:</td><td><div></div></td></tr><tr><td style="font-weight:bold;vertical-align:top;">secure</td><td style="vertical-align:top;">:</td><td><div></div></td></tr><tr><td style="font-weight:bold;vertical-align:top;">version</td><td style="vertical-align:top;">:</td><td><div></div></td></tr></table></div></td></tr></table></div></td></tr><tr><td style="font-weight:bold;vertical-align:top;">env</td><td style="vertical-align:top;">:</td><td><div><table><tr><td style="font-weight:bold;vertical-align:top;">HTTP_ACCEPT</td><td style="vertical-align:top;">:</td><td><div>text/html,application/xhtml+xml,application/xml;q=0.9,image/webp,*/*;q=0.8</div></td></tr><tr><td style="font-weight:bold;vertical-align:top;">HTTP_ACCEPT_ENCODING</td><td style="vertical-align:top;">:</td><td><div>gzip, deflate, sdch</div></td></tr><tr><td style="font-weight:bold;vertical-align:top;">HTTP_ACCEPT_LANGUAGE</td><td style="vertical-align:top;">:</td><td><div>en-US,en;q=0.8,tr;q=0.6</div></td></tr><tr><td style="font-weight:bold;vertical-align:top;">HTTP_CACHE_CONTROL</td><td style="vertical-align:top;">:</td><td><div>max-age=0</div></td></tr><tr><td style="font-weight:bold;vertical-align:top;">HTTP_CONNECTION</td><td style="vertical-align:top;">:</td><td><div>keep-alive</div></td></tr><tr><td style="font-weight:bold;vertical-align:top;">HTTP_COOKIE</td><td style="vertical-align:top;">:</td><td><div>session_id_welcome=127.0.0.1-288f0ac6-9851-4fee-92a4-37702a9ecfc2; session_id_tidetest=127.0.0.1-2952583c-035d-46cb-ad24-f4acdcaf625d; session_id_admin=127.0.0.1-f4da5f68-1def-4122-b205-dd06185b7301</div></td></tr><tr><td style="font-weight:bold;vertical-align:top;">HTTP_DNT</td><td style="vertical-align:top;">:</td><td><div>1</div></td></tr><tr><td style="font-weight:bold;vertical-align:top;">HTTP_HOST</td><td style="vertical-align:top;">:</td><td><div>127.0.0.1:8000</div></td></tr><tr><td style="font-weight:bold;vertical-align:top;">HTTP_UPGRADE_INSECURE_REQUESTS</td><td style="vertical-align:top;">:</td><td><div>1</div></td></tr><tr><td style="font-weight:bold;vertical-align:top;">HTTP_USER_AGENT</td><td style="vertical-align:top;">:</td><td><div>Mozilla/5.0 (Windows NT 6.3; WOW64) AppleWebKit/537.36 (KHTML, like Gecko) Chrome/47.0.2526.80 Safari/537.36</div></td></tr><tr><td style="font-weight:bold;vertical-align:top;">PATH_INFO</td><td style="vertical-align:top;">:</td><td><div>/tidetest/default/fillDBFromCSV</div></td></tr><tr><td style="font-weight:bold;vertical-align:top;">QUERY_STRING</td><td style="vertical-align:top;">:</td><td><div></div></td></tr><tr><td style="font-weight:bold;vertical-align:top;">REMOTE_ADDR</td><td style="vertical-align:top;">:</td><td><div>127.0.0.1</div></td></tr><tr><td style="font-weight:bold;vertical-align:top;">REMOTE_PORT</td><td style="vertical-align:top;">:</td><td><div>54915</div></td></tr><tr><td style="font-weight:bold;vertical-align:top;">REQUEST_METHOD</td><td style="vertical-align:top;">:</td><td><div>GET</div></td></tr><tr><td style="font-weight:bold;vertical-align:top;">SCRIPT_NAME</td><td style="vertical-align:top;">:</td><td><div></div></td></tr><tr><td style="font-weight:bold;vertical-align:top;">SERVER_NAME</td><td style="vertical-align:top;">:</td><td><div>Atahan-MSI</div></td></tr><tr><td style="font-weight:bold;vertical-align:top;">SERVER_PORT</td><td style="vertical-align:top;">:</td><td><div>8000</div></td></tr><tr><td style="font-weight:bold;vertical-align:top;">SERVER_PROTOCOL</td><td style="vertical-align:top;">:</td><td><div>HTTP/1.1</div></td></tr><tr><td style="font-weight:bold;vertical-align:top;">SERVER_SOFTWARE</td><td style="vertical-align:top;">:</td><td><div>Rocket 1.2.6</div></td></tr><tr><td style="font-weight:bold;vertical-align:top;">app_folders</td><td style="vertical-align:top;">:</td><td><div>set([&#x27;C:\\\\Users\\\\Atahan\\\\Desktop\\\\WB\\\\Tidenow\\\\applications\\\\tidetest\\\\&#x27;, &#x27;C:\\\\Users\\\\Atahan\\\\Desktop\\\\WB\\\\Tidenow\\\\applications\\\\welcome\\\\&#x27;, &#x27;C:\\\\Users\\\\Atahan\\\\Desktop\\\\WB\\\\Tidenow\\\\applications\\\\admin\\\\&#x27;])</div></td></tr><tr><td style="font-weight:bold;vertical-align:top;">applications_parent</td><td style="vertical-align:top;">:</td><td><div>C:\\Users\\Atahan\\Desktop\\WB\\Tidenow</div></td></tr><tr><td style="font-weight:bold;vertical-align:top;">cmd_args</td><td style="vertical-align:top;">:</td><td><div><table></table></div></td></tr><tr><td style="font-weight:bold;vertical-align:top;">cmd_options</td><td style="vertical-align:top;">:</td><td><div>&lt;Values at 0x2f8c940: {&#x27;verbose&#x27;: False, &#x27;ip&#x27;: &#x27;127.0.0.1&#x27;, &#x27;debuglevel&#x27;: 30, &#x27;with_scheduler&#x27;: False, &#x27;ips&#x27;: [&#x27;192.168.1.164&#x27;], &#x27;shutdown_timeout&#x27;: 5, &#x27;taskbar&#x27;: False, &#x27;with_coverage&#x27;: False, &#x27;scheduler_groups&#x27;: None, &#x27;port&#x27;: 8000, &#x27;maxthreads&#x27;: None, &#x27;softcron&#x27;: False, &#x27;server_name&#x27;: &#x27;Atahan-MSI&#x27;, &#x27;bpython&#x27;: False, &#x27;nogui&#x27;: False, &#x27;pid_filename&#x27;: &#x27;httpserver.pid&#x27;, &#x27;print_errors&#x27;: False, &#x27;extcron&#x27;: False, &#x27;runcron&#x27;: False, &#x27;run_system_tests&#x27;: False, &#x27;test&#x27;: None, &#x27;folder&#x27;: &#x27;C:\\\\Users\\\\Atahan\\\\Desktop\\\\WB\\\\Tidenow&#x27;, &#x27;config&#x27;: &#x27;&#x27;, &#x27;minthreads&#x27;: None, &#x27;shell&#x27;: None, &#x27;run&#x27;: &#x27;&#x27;, &#x27;log_filename&#x27;: &#x27;httpserver.log&#x27;, &#x27;profiler_dir&#x27;: None, &#x27;args&#x27;: [&#x27;&#x27;], &#x27;socket_timeout&#x27;: 5, &#x27;ssl_ca_certificate&#x27;: None, &#x27;scheduler&#x27;: None, &#x27;interfaces&#x27;: None, &#x27;ssl_private_key&#x27;: &#x27;&#x27;, &#x27;gae&#x27;: None, &#x27;password&#x27;: &#x27;&lt;ask&gt;&#x27;, &#x27;request_queue_size&#x27;: 5, &#x27;ssl_certificate&#x27;: &#x27;&#x27;, &#x27;cronjob&#x27;: False, &#x27;numthreads&#x27;: None, &#x27;quiet&#x27;: False, &#x27;import_models&#x27;: False, &#x27;timeout&#x27;: 10, &#x27;plain&#x27;: False, &#x27;nobanner&#x27;: False}&gt;</div></td></tr><tr><td style="font-weight:bold;vertical-align:top;">db_sessions</td><td style="vertical-align:top;">:</td><td><div>set([])</div></td></tr><tr><td style="font-weight:bold;vertical-align:top;">debugging</td><td style="vertical-align:top;">:</td><td><div>False</div></td></tr><tr><td style="font-weight:bold;vertical-align:top;">gluon_parent</td><td style="vertical-align:top;">:</td><td><div>C:\\Users\\Atahan\\Desktop\\WB\\Tidenow</div></td></tr><tr><td style="font-weight:bold;vertical-align:top;">http_accept</td><td style="vertical-align:top;">:</td><td><div>text/html,application/xhtml+xml,application/xml;q=0.9,image/webp,*/*;q=0.8</div></td></tr><tr><td style="font-weight:bold;vertical-align:top;">http_accept_encoding</td><td style="vertical-align:top;">:</td><td><div>gzip, deflate, sdch</div></td></tr><tr><td style="font-weight:bold;vertical-align:top;">http_accept_language</td><td style="vertical-align:top;">:</td><td><div>en-US,en;q=0.8,tr;q=0.6</div></td></tr><tr><td style="font-weight:bold;vertical-align:top;">http_cache_control</td><td style="vertical-align:top;">:</td><td><div>max-age=0</div></td></tr><tr><td style="font-weight:bold;vertical-align:top;">http_connection</td><td style="vertical-align:top;">:</td><td><div>keep-alive</div></td></tr><tr><td style="font-weight:bold;vertical-align:top;">http_cookie</td><td style="vertical-align:top;">:</td><td><div>session_id_welcome=127.0.0.1-288f0ac6-9851-4fee-92a4-37702a9ecfc2; session_id_tidetest=127.0.0.1-2952583c-035d-46cb-ad24-f4acdcaf625d; session_id_admin=127.0.0.1-f4da5f68-1def-4122-b205-dd06185b7301</div></td></tr><tr><td style="font-weight:bold;vertical-align:top;">http_dnt</td><td style="vertical-align:top;">:</td><td><div>1</div></td></tr><tr><td style="font-weight:bold;vertical-align:top;">http_host</td><td style="vertical-align:top;">:</td><td><div>127.0.0.1:8000</div></td></tr><tr><td style="font-weight:bold;vertical-align:top;">http_upgrade_insecure_requests</td><td style="vertical-align:top;">:</td><td><div>1</div></td></tr><tr><td style="font-weight:bold;vertical-align:top;">http_user_agent</td><td style="vertical-align:top;">:</td><td><div>Mozilla/5.0 (Windows NT 6.3; WOW64) AppleWebKit/537.36 (KHTML, like Gecko) Chrome/47.0.2526.80 Safari/537.36</div></td></tr><tr><td style="font-weight:bold;vertical-align:top;">is_jython</td><td style="vertical-align:top;">:</td><td><div>False</div></td></tr><tr><td style="font-weight:bold;vertical-align:top;">is_pypy</td><td style="vertical-align:top;">:</td><td><div>False</div></td></tr><tr><td style="font-weight:bold;vertical-align:top;">is_source</td><td style="vertical-align:top;">:</td><td><div>True</div></td></tr><tr><td style="font-weight:bold;vertical-align:top;">local_hosts</td><td style="vertical-align:top;">:</td><td><div><table><tr><td><div>Atahan-MSI.attlocal.net</div></td></tr><tr><td><div>2602:306:bcbf:d000:ac85:3822:3d11:2807</div></td></tr><tr><td><div>::ffff:127.0.0.1</div></td></tr><tr><td><div>::1</div></td></tr><tr><td><div>fe80::ac85:3822:3d11:2807%4</div></td></tr><tr><td><div>Atahan-MSI</div></td></tr><tr><td><div>192.168.1.164</div></td></tr><tr><td><div>2602:306:bcbf:d000:ec90:2f41:6cf8:f0fe</div></td></tr><tr><td><div>127.0.0.1</div></td></tr></table></div></td></tr><tr><td style="font-weight:bold;vertical-align:top;">path_info</td><td style="vertical-align:top;">:</td><td><div>/tidetest/default/fillDBFromCSV</div></td></tr><tr><td style="font-weight:bold;vertical-align:top;">query_string</td><td style="vertical-align:top;">:</td><td><div></div></td></tr><tr><td style="font-weight:bold;vertical-align:top;">remote_addr</td><td style="vertical-align:top;">:</td><td><div>127.0.0.1</div></td></tr><tr><td style="font-weight:bold;vertical-align:top;">remote_port</td><td style="vertical-align:top;">:</td><td><div>54915</div></td></tr><tr><td style="font-weight:bold;vertical-align:top;">request_method</td><td style="vertical-align:top;">:</td><td><div>GET</div></td></tr><tr><td style="font-weight:bold;vertical-align:top;">request_uri</td><td style="vertical-align:top;">:</td><td><div>/tidetest/default/fillDBFromCSV</div></td></tr><tr><td style="font-weight:bold;vertical-align:top;">script_name</td><td style="vertical-align:top;">:</td><td><div></div></td></tr><tr><td style="font-weight:bold;vertical-align:top;">server_name</td><td style="vertical-align:top;">:</td><td><div>Atahan-MSI</div></td></tr><tr><td style="font-weight:bold;vertical-align:top;">server_port</td><td style="vertical-align:top;">:</td><td><div>8000</div></td></tr><tr><td style="font-weight:bold;vertical-align:top;">server_protocol</td><td style="vertical-align:top;">:</td><td><div>HTTP/1.1</div></td></tr><tr><td style="font-weight:bold;vertical-align:top;">server_software</td><td style="vertical-align:top;">:</td><td><div>Rocket 1.2.6</div></td></tr><tr><td style="font-weight:bold;vertical-align:top;">web2py_path</td><td style="vertical-align:top;">:</td><td><div>C:\\Users\\Atahan\\Desktop\\WB\\Tidenow</div></td></tr><tr><td style="font-weight:bold;vertical-align:top;">web2py_version</td><td style="vertical-align:top;">:</td><td><div>2.12.3-stable+timestamp.2015.08.19.00.18.03</div></td></tr><tr><td style="font-weight:bold;vertical-align:top;">wsgi.errors</td><td style="vertical-align:top;">:</td><td><div>&lt;open file &#x27;&lt;stderr&gt;&#x27;, mode &#x27;w&#x27; at 0x003FD0D0&gt;</div></td></tr><tr><td style="font-weight:bold;vertical-align:top;">wsgi.file_wrapper</td><td style="vertical-align:top;">:</td><td><div>&lt;class wsgiref.util.FileWrapper at 0x02F4C260&gt;</div></td></tr><tr><td style="font-weight:bold;vertical-align:top;">wsgi.input</td><td style="vertical-align:top;">:</td><td><div>&lt;socket._fileobject object at 0x02F971B0&gt;</div></td></tr><tr><td style="font-weight:bold;vertical-align:top;">wsgi.multiprocess</td><td style="vertical-align:top;">:</td><td><div>False</div></td></tr><tr><td style="font-weight:bold;vertical-align:top;">wsgi.multithread</td><td style="vertical-align:top;">:</td><td><div>True</div></td></tr><tr><td style="font-weight:bold;vertical-align:top;">wsgi.run_once</td><td style="vertical-align:top;">:</td><td><div>False</div></td></tr><tr><td style="font-weight:bold;vertical-align:top;">wsgi.url_scheme</td><td style="vertical-align:top;">:</td><td><div>http</div></td></tr><tr><td style="font-weight:bold;vertical-align:top;">wsgi.version</td><td style="vertical-align:top;">:</td><td><div><table><tr><td><div>1</div></td></tr><tr><td><div>0</div></td></tr></table></div></td></tr><tr><td style="font-weight:bold;vertical-align:top;">wsgi_errors</td><td style="vertical-align:top;">:</td><td><div>&lt;open file &#x27;&lt;stderr&gt;&#x27;, mode &#x27;w&#x27; at 0x003FD0D0&gt;</div></td></tr><tr><td style="font-weight:bold;vertical-align:top;">wsgi_file_wrapper</td><td style="vertical-align:top;">:</td><td><div>&lt;class wsgiref.util.FileWrapper at 0x02F4C260&gt;</div></td></tr><tr><td style="font-weight:bold;vertical-align:top;">wsgi_input</td><td style="vertical-align:top;">:</td><td><div>&lt;socket._fileobject object at 0x02F971B0&gt;</div></td></tr><tr><td style="font-weight:bold;vertical-align:top;">wsgi_multiprocess</td><td style="vertical-align:top;">:</td><td><div>False</div></td></tr><tr><td style="font-weight:bold;vertical-align:top;">wsgi_multithread</td><td style="vertical-align:top;">:</td><td><div>True</div></td></tr><tr><td style="font-weight:bold;vertical-align:top;">wsgi_run_once</td><td style="vertical-align:top;">:</td><td><div>False</div></td></tr><tr><td style="font-weight:bold;vertical-align:top;">wsgi_url_scheme</td><td style="vertical-align:top;">:</td><td><div>http</div></td></tr><tr><td style="font-weight:bold;vertical-align:top;">wsgi_version</td><td style="vertical-align:top;">:</td><td><div><table><tr><td><div>1</div></td></tr><tr><td><div>0</div></td></tr></table></div></td></tr></table></div></td></tr><tr><td style="font-weight:bold;vertical-align:top;">extension</td><td style="vertical-align:top;">:</td><td><div>html</div></td></tr><tr><td style="font-weight:bold;vertical-align:top;">folder</td><td style="vertical-align:top;">:</td><td><div>C:\\Users\\Atahan\\Desktop\\WB\\Tidenow\\applications\\tidetest\\</div></td></tr><tr><td style="font-weight:bold;vertical-align:top;">function</td><td style="vertical-align:top;">:</td><td><div>fillDBFromCSV</div></td></tr><tr><td style="font-weight:bold;vertical-align:top;">global_settings</td><td style="vertical-align:top;">:</td><td><div><table><tr><td style="font-weight:bold;vertical-align:top;">app_folders</td><td style="vertical-align:top;">:</td><td><div>set([&#x27;C:\\\\Users\\\\Atahan\\\\Desktop\\\\WB\\\\Tidenow\\\\applications\\\\tidetest\\\\&#x27;, &#x27;C:\\\\Users\\\\Atahan\\\\Desktop\\\\WB\\\\Tidenow\\\\applications\\\\welcome\\\\&#x27;, &#x27;C:\\\\Users\\\\Atahan\\\\Desktop\\\\WB\\\\Tidenow\\\\applications\\\\admin\\\\&#x27;])</div></td></tr><tr><td style="font-weight:bold;vertical-align:top;">applications_parent</td><td style="vertical-align:top;">:</td><td><div>C:\\Users\\Atahan\\Desktop\\WB\\Tidenow</div></td></tr><tr><td style="font-weight:bold;vertical-align:top;">cmd_args</td><td style="vertical-align:top;">:</td><td><div><table></table></div></td></tr><tr><td style="font-weight:bold;vertical-align:top;">cmd_options</td><td style="vertical-align:top;">:</td><td><div>&lt;Values at 0x2f8c940: {&#x27;verbose&#x27;: False, &#x27;ip&#x27;: &#x27;127.0.0.1&#x27;, &#x27;debuglevel&#x27;: 30, &#x27;with_scheduler&#x27;: False, &#x27;ips&#x27;: [&#x27;192.168.1.164&#x27;], &#x27;shutdown_timeout&#x27;: 5, &#x27;taskbar&#x27;: False, &#x27;with_coverage&#x27;: False, &#x27;scheduler_groups&#x27;: None, &#x27;port&#x27;: 8000, &#x27;maxthreads&#x27;: None, &#x27;softcron&#x27;: False, &#x27;server_name&#x27;: &#x27;Atahan-MSI&#x27;, &#x27;bpython&#x27;: False, &#x27;nogui&#x27;: False, &#x27;pid_filename&#x27;: &#x27;httpserver.pid&#x27;, &#x27;print_errors&#x27;: False, &#x27;extcron&#x27;: False, &#x27;runcron&#x27;: False, &#x27;run_system_tests&#x27;: False, &#x27;test&#x27;: None, &#x27;folder&#x27;: &#x27;C:\\\\Users\\\\Atahan\\\\Desktop\\\\WB\\\\Tidenow&#x27;, &#x27;config&#x27;: &#x27;&#x27;, &#x27;minthreads&#x27;: None, &#x27;shell&#x27;: None, &#x27;run&#x27;: &#x27;&#x27;, &#x27;log_filename&#x27;: &#x27;httpserver.log&#x27;, &#x27;profiler_dir&#x27;: None, &#x27;args&#x27;: [&#x27;&#x27;], &#x27;socket_timeout&#x27;: 5, &#x27;ssl_ca_certificate&#x27;: None, &#x27;scheduler&#x27;: None, &#x27;interfaces&#x27;: None, &#x27;ssl_private_key&#x27;: &#x27;&#x27;, &#x27;gae&#x27;: None, &#x27;password&#x27;: &#x27;&lt;ask&gt;&#x27;, &#x27;request_queue_size&#x27;: 5, &#x27;ssl_certificate&#x27;: &#x27;&#x27;, &#x27;cronjob&#x27;: False, &#x27;numthreads&#x27;: None, &#x27;quiet&#x27;: False, &#x27;import_models&#x27;: False, &#x27;timeout&#x27;: 10, &#x27;plain&#x27;: False, &#x27;nobanner&#x27;: False}&gt;</div></td></tr><tr><td style="font-weight:bold;vertical-align:top;">db_sessions</td><td style="vertical-align:top;">:</td><td><div>set([])</div></td></tr><tr><td style="font-weight:bold;vertical-align:top;">debugging</td><td style="vertical-align:top;">:</td><td><div>False</div></td></tr><tr><td style="font-weight:bold;vertical-align:top;">gluon_parent</td><td style="vertical-align:top;">:</td><td><div>C:\\Users\\Atahan\\Desktop\\WB\\Tidenow</div></td></tr><tr><td style="font-weight:bold;vertical-align:top;">is_jython</td><td style="vertical-align:top;">:</td><td><div>False</div></td></tr><tr><td style="font-weight:bold;vertical-align:top;">is_pypy</td><td style="vertical-align:top;">:</td><td><div>False</div></td></tr><tr><td style="font-weight:bold;vertical-align:top;">is_source</td><td style="vertical-align:top;">:</td><td><div>True</div></td></tr><tr><td style="font-weight:bold;vertical-align:top;">local_hosts</td><td style="vertical-align:top;">:</td><td><div><table><tr><td><div>Atahan-MSI.attlocal.net</div></td></tr><tr><td><div>2602:306:bcbf:d000:ac85:3822:3d11:2807</div></td></tr><tr><td><div>::ffff:127.0.0.1</div></td></tr><tr><td><div>::1</div></td></tr><tr><td><div>fe80::ac85:3822:3d11:2807%4</div></td></tr><tr><td><div>Atahan-MSI</div></td></tr><tr><td><div>192.168.1.164</div></td></tr><tr><td><div>2602:306:bcbf:d000:ec90:2f41:6cf8:f0fe</div></td></tr><tr><td><div>127.0.0.1</div></td></tr></table></div></td></tr><tr><td style="font-weight:bold;vertical-align:top;">web2py_version</td><td style="vertical-align:top;">:</td><td><div>2.12.3-stable+timestamp.2015.08.19.00.18.03</div></td></tr></table></div></td></tr><tr><td style="font-weight:bold;vertical-align:top;">is_https</td><td style="vertical-align:top;">:</td><td><div>False</div></td></tr><tr><td style="font-weight:bold;vertical-align:top;">is_local</td><td style="vertical-align:top;">:</td><td><div>True</div></td></tr><tr><td style="font-weight:bold;vertical-align:top;">is_restful</td><td style="vertical-align:top;">:</td><td><div>False</div></td></tr><tr><td style="font-weight:bold;vertical-align:top;">is_sheduler</td><td style="vertical-align:top;">:</td><td><div>None</div></td></tr><tr><td style="font-weight:bold;vertical-align:top;">is_shell</td><td style="vertical-align:top;">:</td><td><div>None</div></td></tr><tr><td style="font-weight:bold;vertical-align:top;">now</td><td style="vertical-align:top;">:</td><td><div>datetime.datetime(2015, 12, 12, 12, 35, 33, 385000)</div></td></tr><tr><td style="font-weight:bold;vertical-align:top;">raw_args</td><td style="vertical-align:top;">:</td><td><div></div></td></tr><tr><td style="font-weight:bold;vertical-align:top;">raw_extension</td><td style="vertical-align:top;">:</td><td><div>None</div></td></tr><tr><td style="font-weight:bold;vertical-align:top;">url</td><td style="vertical-align:top;">:</td><td><div>/tidetest/default/fillDBFromCSV</div></td></tr><tr><td style="font-weight:bold;vertical-align:top;">utcnow</td><td style="vertical-align:top;">:</td><td><div>datetime.datetime(2015, 12, 12, 20, 35, 33, 385000)</div></td></tr><tr><td style="font-weight:bold;vertical-align:top;">wsgi</td><td style="vertical-align:top;">:</td><td><div>&lt;gluon.main.LazyWSGI object at 0x09240E50&gt;</div></td></tr></table></div>'
tRp70
sS'frames'
p71
(lp72
(dp73
S'file'
p74
S'C:\\Users\\Atahan\\Desktop\\WB\\Tidenow\\gluon\\restricted.py'
p75
sS'dump'
p76
(dp77
S'environment'
p78
S"{'A': <class 'gluon.html.A'>, 'ANY_OF': <class 'gluon.validators.ANY_OF'>, 'ASSIGNJS': <function ASSIGNJS>, 'AppConfig': <function AppConfig>, 'Auth': <class 'gluon.tools.Auth'>, 'B': <class 'gluon.html.B'>, 'BEAUTIFY': <class 'gluon.html.BEAUTIFY'>, 'BODY': <class 'gluon.html.BODY'>, 'BR': <class 'gluon.html.BR'>, 'BUTTON': <class 'gluon.html.BUTTON'>, ...}"
p79
sS'ccode'
p80
S'<code object <module> at 0901F800, file "C:\\User...ations\\tidetest\\controllers/default.py", line 10>'
p81
ssS'lnum'
p82
I227
sS'lines'
p83
(dp84
I224
S'            ccode = code'
p85
sI225
S'        else:'
p86
sI226
S'            ccode = compile2(code, layer)'
p87
sI227
S'        exec ccode in environment'
p88
sI228
S'    except HTTP:'
p89
sI229
S'        raise'
p90
sI230
S'    except RestrictedError:'
p91
sI231
S'        # do not encapsulate (obfuscate) the original RestrictedError'
p92
sI222
S'    try:'
p93
sI223
S'        if isinstance(code, types.CodeType):'
p94
ssS'call'
p95
S"(code='# -*- coding: utf-8 -*-\\n# this file is released ...\\n\\nresponse._vars=response._caller(fillDBFromCSV)\\n', environment={'A': <class 'gluon.html.A'>, 'ANY_OF': <class 'gluon.validators.ANY_OF'>, 'ASSIGNJS': <function ASSIGNJS>, 'AppConfig': <function AppConfig>, 'Auth': <class 'gluon.tools.Auth'>, 'B': <class 'gluon.html.B'>, 'BEAUTIFY': <class 'gluon.html.BEAUTIFY'>, 'BODY': <class 'gluon.html.BODY'>, 'BR': <class 'gluon.html.BR'>, 'BUTTON': <class 'gluon.html.BUTTON'>, ...}, layer=r'C:\\Users\\Atahan\\Desktop\\WB\\Tidenow\\applications\\tidetest\\controllers/default.py')"
p96
sS'func'
p97
S'restricted'
p98
sa(dp99
g74
S'C:\\Users\\Atahan\\Desktop\\WB\\Tidenow\\applications\\tidetest\\controllers\\default.py'
p100
sg76
(dp101
sg82
I161
sg83
(dp102
I150
S'def call():'
p103
sI151
S'    """'
p104
sI152
S'    exposes services. for example:'
p105
sI153
S'    http://..../[app]/default/call/jsonrpc'
p106
sI154
S'    decorate with @services.jsonrpc the functions to expose'
p107
sI155
S'    supports xml, json, xmlrpc, jsonrpc, amfrpc, rss, csv'
p108
sI156
S'    """'
p109
sI157
S'    return service()'
p110
sI158
S''
sI159
S''
ssg95
S'()'
p111
sg97
S'<module>'
p112
sa(dp113
g74
S'C:\\Users\\Atahan\\Desktop\\WB\\Tidenow\\gluon\\globals.py'
p114
sg76
(dp115
S'self'
p116
S'undefined'
p117
sS'f'
S'<function fillDBFromCSV>'
p118
ssg82
I412
sg83
(dp119
I416
S"        self.generic_patterns = ['*']"
p120
sI407
S"        self.flash = ''            # used by the default view layout"
p121
sI408
S'        self.meta = Storage()      # used by web2py_ajax.html'
p122
sI409
S'        self.menu = []             # used by the default view layout'
p123
sI410
S'        self.files = []            # used by web2py_ajax.html'
p124
sI411
S'        self._vars = None'
p125
sI412
S'        self._caller = lambda f: f()'
p126
sI413
S'        self._view_environment = None'
p127
sI414
S'        self._custom_commit = None'
p128
sI415
S'        self._custom_rollback = None'
p129
ssg95
S'(f=<function fillDBFromCSV>)'
p130
sg97
S'<lambda>'
p131
sa(dp132
g74
S'C:\\Users\\Atahan\\Desktop\\WB\\Tidenow\\applications\\tidetest\\controllers\\default.py'
p133
sg76
(dp134
S'csvFile'
p135
g117
sS'csv'
p136
S"<module 'csv' from 'C:\\Python27\\lib\\csv.pyc'>"
p137
sS'csv.reader'
p138
S'<built-in function reader>'
p139
sS'reader'
p140
g117
ssg82
I96
sg83
(dp141
I96
S"    response = urllib2.urlopen('https://drive.google.com/uc?export=download&id=0B4Nh6ak8KjZBdktUS0N2cVVIcUE')"
p142
sI97
S'    fullFile = response.read()'
p143
sI98
S'    return str(fullFile)'
p144
sI99
S'    csvFile = open("static/files/site_database_dec12.csv")'
p145
sI100
S'    reader = csv.reader(csvFile)'
p146
sI91
S'    return "Success"'
p147
sI92
S''
sI93
S'def fillDBFromCSV():'
p148
sI94
S'    import csv'
p149
sI95
S'    import urllib2'
p150
ssg95
S'()'
p151
sg97
S'fillDBFromCSV'
p152
sa(dp153
g74
S'C:\\Python27\\lib\\urllib2.py'
p154
sg76
(dp155
S'url'
p156
S"'https://drive.google.com/uc?export=download&id=0B4Nh6ak8KjZBdktUS0N2cVVIcUE'"
p157
sS'opener'
p158
S'<urllib2.OpenerDirector instance>'
p159
sS'data'
p160
S'None'
p161
sS'timeout'
p162
S'<object object>'
p163
sS'opener.open'
p164
S'<bound method OpenerDirector.open of <urllib2.OpenerDirector instance>>'
p165
ssg82
I154
sg83
(dp166
I149
S'        opener = build_opener(https_handler)'
p167
sI150
S'    elif _opener is None:'
p168
sI151
S'        _opener = opener = build_opener()'
p169
sI152
S'    else:'
p170
sI153
S'        opener = _opener'
p171
sI154
S'    return opener.open(url, data, timeout)'
p172
sI155
S''
sI156
S'def install_opener(opener):'
p173
sI157
S'    global _opener'
p174
sI158
S'    _opener = opener'
p175
ssg95
S"(url='https://drive.google.com/uc?export=download&id=0B4Nh6ak8KjZBdktUS0N2cVVIcUE', data=None, timeout=<object object>, cafile=None, capath=None, cadefault=False, context=None)"
p176
sg97
S'urlopen'
p177
sa(dp178
g74
S'C:\\Python27\\lib\\urllib2.py'
p179
sg76
(dp180
S'self'
p181
S'<urllib2.OpenerDirector instance>'
p182
sS'req'
p183
S'<urllib2.Request instance>'
p184
sS'data'
p185
S'None'
p186
sS'response'
p187
g117
sS'self._open'
p188
S'<bound method OpenerDirector._open of <urllib2.OpenerDirector instance>>'
p189
ssg82
I431
sg83
(dp190
I426
S'        meth_name = protocol+"_request"'
p191
sI427
S'        for processor in self.process_request.get(protocol, []):'
p192
sI428
S'            meth = getattr(processor, meth_name)'
p193
sI429
S'            req = meth(req)'
p194
sI430
S''
sI431
S'        response = self._open(req, data)'
p195
sI432
S''
sI433
S'        # post-process response'
p196
sI434
S'        meth_name = protocol+"_response"'
p197
sI435
S'        for processor in self.process_response.get(protocol, []):'
p198
ssg95
S"(self=<urllib2.OpenerDirector instance>, fullurl='https://drive.google.com/uc?export=download&id=0B4Nh6ak8KjZBdktUS0N2cVVIcUE', data=None, timeout=<object object>)"
p199
sg97
S'open'
p200
sa(dp201
g74
S'C:\\Python27\\lib\\urllib2.py'
p202
sg76
(dp203
S'req'
p204
S'<urllib2.Request instance>'
p205
ssg82
I449
sg83
(dp206
I448
S'        result = self._call_chain(self.handle_open, protocol, protocol +'
p207
sI449
S"                                  '_open', req)"
p208
sI450
S'        if result:'
p209
sI451
S'            return result'
p210
sI452
S''
sI453
S"        return self._call_chain(self.handle_open, 'unknown',"
p211
sI444
S'        if result:'
p212
sI445
S'            return result'
p213
sI446
S''
sI447
S'        protocol = req.get_type()'
p214
ssg95
S'(self=<urllib2.OpenerDirector instance>, req=<urllib2.Request instance>, data=None)'
p215
sg97
S'_open'
p216
sa(dp217
g74
S'C:\\Python27\\lib\\urllib2.py'
p218
sg76
(dp219
S'args'
p220
S'(<urllib2.Request instance>,)'
p221
sS'result'
p222
g117
sS'func'
p223
S'<bound method HTTPSHandler.https_open of <urllib2.HTTPSHandler instance>>'
p224
ssg82
I409
sg83
(dp225
I404
S'        # could.  Otherwise, they return the response.'
p226
sI405
S'        handlers = chain.get(kind, ())'
p227
sI406
S'        for handler in handlers:'
p228
sI407
S'            func = getattr(handler, meth_name)'
p229
sI408
S''
sI409
S'            result = func(*args)'
p230
sI410
S'            if result is not None:'
p231
sI411
S'                return result'
p232
sI412
S''
sI413
S'    def open(self, fullurl, data=None, timeout=socket._GLOBAL_DEFAULT_TIMEOUT):'
p233
ssg95
S"(self=<urllib2.OpenerDirector instance>, chain={'file': [<urllib2.FileHandler instance>], 'ftp': [<urllib2.FTPHandler instance>], 'http': [<urllib2.HTTPHandler instance>], 'https': [<urllib2.HTTPSHandler instance>], 'unknown': [<urllib2.UnknownHandler instance>]}, kind='https', meth_name='https_open', *args=(<urllib2.Request instance>,))"
p234
sg97
S'_call_chain'
p235
sa(dp236
g74
S'C:\\Python27\\lib\\urllib2.py'
p237
sg76
(dp238
S'self'
p239
S'<urllib2.HTTPSHandler instance>'
p240
sS'self._context'
p241
S'None'
p242
sS'context'
p243
g117
ssg82
I1240
sg83
(dp244
I1235
S'            AbstractHTTPHandler.__init__(self, debuglevel)'
p245
sI1236
S'            self._context = context'
p246
sI1237
S''
sI1238
S'        def https_open(self, req):'
p247
sI1239
S'            return self.do_open(httplib.HTTPSConnection, req,'
p248
sI1240
S'                context=self._context)'
p249
sI1241
S''
sI1242
S'        https_request = AbstractHTTPHandler.do_request_'
p250
sI1243
S''
sI1244
S'class HTTPCookieProcessor(BaseHandler):'
p251
ssg95
S'(self=<urllib2.HTTPSHandler instance>, req=<urllib2.Request instance>)'
p252
sg97
S'https_open'
p253
sa(dp254
g74
S'C:\\Python27\\lib\\urllib2.py'
p255
sg76
(dp256
S'err'
p257
S"SSLError(1, u'[SSL: CERTIFICATE_VERIFY_FAILED] certificate verify failed (_ssl.c:590)')"
p258
sS'global URLError'
p259
S"<class 'urllib2.URLError'>"
p260
ssg82
I1197
sg83
(dp261
I1192
S''
sI1193
S'        try:'
p262
sI1194
S'            h.request(req.get_method(), req.get_selector(), req.data, headers)'
p263
sI1195
S'        except socket.error, err: # XXX what error?'
p264
sI1196
S'            h.close()'
p265
sI1197
S'            raise URLError(err)'
p266
sI1198
S'        else:'
p267
sI1199
S'            try:'
p268
sI1200
S'                r = h.getresponse(buffering=True)'
p269
sI1201
S'            except TypeError: # buffering kw not supported'
p270
ssg95
S"(self=<urllib2.HTTPSHandler instance>, http_class=<class httplib.HTTPSConnection>, req=<urllib2.Request instance>, **http_conn_args={'context': None})"
p271
sg97
S'do_open'
p272
sasS'pyver'
p273
S'Python 2.7.10: C:\\Python27\\python.exe (prefix: C:\\Python27)'
p274
sS'session'
p275
g69
(S's\x1a\x00\x00\x00<div><table></table></div>'
tRp276
sS'etype'
p277
S"<class 'urllib2.URLError'>"
p278
sS'date'
p279
S'Sat Dec 12 12:35:33 2015'
p280
sS'response'
p281
g69
(S's\x80>\x00\x00<div><table><tr><td style="font-weight:bold;vertical-align:top;">body</td><td style="vertical-align:top;">:</td><td><div>&lt;cStringIO.StringO object at 0x092F4A40&gt;</div></td></tr><tr><td style="font-weight:bold;vertical-align:top;">cookies</td><td style="vertical-align:top;">:</td><td><div><table><tr><td style="font-weight:bold;vertical-align:top;">session_id_tidetest</td><td style="vertical-align:top;">:</td><td><div>127.0.0.1-eabbc045-af22-41a6-83ea-ac46f18d37c2<table><tr><td style="font-weight:bold;vertical-align:top;">comment</td><td style="vertical-align:top;">:</td><td><div></div></td></tr><tr><td style="font-weight:bold;vertical-align:top;">domain</td><td style="vertical-align:top;">:</td><td><div></div></td></tr><tr><td style="font-weight:bold;vertical-align:top;">expires</td><td style="vertical-align:top;">:</td><td><div></div></td></tr><tr><td style="font-weight:bold;vertical-align:top;">httponly</td><td style="vertical-align:top;">:</td><td><div></div></td></tr><tr><td style="font-weight:bold;vertical-align:top;">max-age</td><td style="vertical-align:top;">:</td><td><div></div></td></tr><tr><td style="font-weight:bold;vertical-align:top;">path</td><td style="vertical-align:top;">:</td><td><div>/</div></td></tr><tr><td style="font-weight:bold;vertical-align:top;">secure</td><td style="vertical-align:top;">:</td><td><div></div></td></tr><tr><td style="font-weight:bold;vertical-align:top;">version</td><td style="vertical-align:top;">:</td><td><div></div></td></tr></table></div></td></tr></table></div></td></tr><tr><td style="font-weight:bold;vertical-align:top;">delimiters</td><td style="vertical-align:top;">:</td><td><div><table><tr><td><div>{{</div></td></tr><tr><td><div>}}</div></td></tr></table></div></td></tr><tr><td style="font-weight:bold;vertical-align:top;">files</td><td style="vertical-align:top;">:</td><td><div><table></table></div></td></tr><tr><td style="font-weight:bold;vertical-align:top;">flash</td><td style="vertical-align:top;">:</td><td><div></div></td></tr><tr><td style="font-weight:bold;vertical-align:top;">form_label_separator</td><td style="vertical-align:top;">:</td><td><div></div></td></tr><tr><td style="font-weight:bold;vertical-align:top;">formstyle</td><td style="vertical-align:top;">:</td><td><div>bootstrap3_inline</div></td></tr><tr><td style="font-weight:bold;vertical-align:top;">generic_patterns</td><td style="vertical-align:top;">:</td><td><div><table><tr><td><div>*</div></td></tr></table></div></td></tr><tr><td style="font-weight:bold;vertical-align:top;">google_analytics_id</td><td style="vertical-align:top;">:</td><td><div>None</div></td></tr><tr><td style="font-weight:bold;vertical-align:top;">headers</td><td style="vertical-align:top;">:</td><td><div><table><tr><td style="font-weight:bold;vertical-align:top;">X-Powered-By</td><td style="vertical-align:top;">:</td><td><div>web2py</div></td></tr></table></div></td></tr><tr><td style="font-weight:bold;vertical-align:top;">logo</td><td style="vertical-align:top;">:</td><td><div><a class="navbar-brand" href="http://www.web2py.com/" id="web2py-logo"><b>web<span>2</span>py</b>&trade;&nbsp;</a></div></td></tr><tr><td style="font-weight:bold;vertical-align:top;">menu</td><td style="vertical-align:top;">:</td><td><div><table><tr><td><div><table><tr><td><div>Home</div></td></tr><tr><td><div>False</div></td></tr><tr><td><div>/tidetest/default/index</div></td></tr><tr><td><div><table></table></div></td></tr></table></div></td></tr><tr><td><div><table><tr><td><div>My Sites</div></td></tr><tr><td><div>False</div></td></tr><tr><td><div>/admin/default/site</div></td></tr></table></div></td></tr><tr><td><div><table><tr><td><div>This App</div></td></tr><tr><td><div>False</div></td></tr><tr><td><div>#</div></td></tr><tr><td><div><table><tr><td><div><table><tr><td><div>Design</div></td></tr><tr><td><div>False</div></td></tr><tr><td><div>/admin/default/design/tidetest</div></td></tr></table></div></td></tr><tr><td><div><li class="divider"></li></div></td></tr><tr><td><div><table><tr><td><div>Controller</div></td></tr><tr><td><div>False</div></td></tr><tr><td><div>/admin/default/edit/tidetest/controllers/default.py</div></td></tr></table></div></td></tr><tr><td><div><table><tr><td><div>View</div></td></tr><tr><td><div>False</div></td></tr><tr><td><div>/admin/default/edit/tidetest/views/default/fillDBFromCSV.html</div></td></tr></table></div></td></tr><tr><td><div><table><tr><td><div>DB Model</div></td></tr><tr><td><div>False</div></td></tr><tr><td><div>/admin/default/edit/tidetest/models/db.py</div></td></tr></table></div></td></tr><tr><td><div><table><tr><td><div>Menu Model</div></td></tr><tr><td><div>False</div></td></tr><tr><td><div>/admin/default/edit/tidetest/models/menu.py</div></td></tr></table></div></td></tr><tr><td><div><table><tr><td><div>Config.ini</div></td></tr><tr><td><div>False</div></td></tr><tr><td><div>/admin/default/edit/tidetest/private/appconfig.ini</div></td></tr></table></div></td></tr><tr><td><div><table><tr><td><div>Layout</div></td></tr><tr><td><div>False</div></td></tr><tr><td><div>/admin/default/edit/tidetest/views/layout.html</div></td></tr></table></div></td></tr><tr><td><div><table><tr><td><div>Stylesheet</div></td></tr><tr><td><div>False</div></td></tr><tr><td><div>/admin/default/edit/tidetest/static/css/web2py-bootstrap3.css</div></td></tr></table></div></td></tr><tr><td><div><table><tr><td><div>Database</div></td></tr><tr><td><div>False</div></td></tr><tr><td><div>/tidetest/appadmin/index</div></td></tr></table></div></td></tr><tr><td><div><table><tr><td><div>Errors</div></td></tr><tr><td><div>False</div></td></tr><tr><td><div>/admin/default/errors/tidetest</div></td></tr></table></div></td></tr><tr><td><div><table><tr><td><div>About</div></td></tr><tr><td><div>False</div></td></tr><tr><td><div>/admin/default/about/tidetest</div></td></tr></table></div></td></tr></table></div></td></tr></table></div></td></tr><tr><td><div><table><tr><td><div>web2py.com</div></td></tr><tr><td><div>False</div></td></tr><tr><td><div>#</div></td></tr><tr><td><div><table><tr><td><div><table><tr><td><div>Download</div></td></tr><tr><td><div>False</div></td></tr><tr><td><div>http://www.web2py.com/examples/default/download</div></td></tr></table></div></td></tr><tr><td><div><table><tr><td><div>Support</div></td></tr><tr><td><div>False</div></td></tr><tr><td><div>http://www.web2py.com/examples/default/support</div></td></tr></table></div></td></tr><tr><td><div><table><tr><td><div>Demo</div></td></tr><tr><td><div>False</div></td></tr><tr><td><div>http://web2py.com/demo_admin</div></td></tr></table></div></td></tr><tr><td><div><table><tr><td><div>Quick Examples</div></td></tr><tr><td><div>False</div></td></tr><tr><td><div>http://web2py.com/examples/default/examples</div></td></tr></table></div></td></tr><tr><td><div><table><tr><td><div>FAQ</div></td></tr><tr><td><div>False</div></td></tr><tr><td><div>http://web2py.com/AlterEgo</div></td></tr></table></div></td></tr><tr><td><div><table><tr><td><div>Videos</div></td></tr><tr><td><div>False</div></td></tr><tr><td><div>http://www.web2py.com/examples/default/videos/</div></td></tr></table></div></td></tr><tr><td><div><table><tr><td><div>Free Applications</div></td></tr><tr><td><div>False</div></td></tr><tr><td><div>http://web2py.com/appliances</div></td></tr></table></div></td></tr><tr><td><div><table><tr><td><div>Plugins</div></td></tr><tr><td><div>False</div></td></tr><tr><td><div>http://web2py.com/plugins</div></td></tr></table></div></td></tr><tr><td><div><table><tr><td><div>Recipes</div></td></tr><tr><td><div>False</div></td></tr><tr><td><div>http://web2pyslices.com/</div></td></tr></table></div></td></tr></table></div></td></tr></table></div></td></tr><tr><td><div><table><tr><td><div>Documentation</div></td></tr><tr><td><div>False</div></td></tr><tr><td><div>#</div></td></tr><tr><td><div><table><tr><td><div><table><tr><td><div>Online book</div></td></tr><tr><td><div>False</div></td></tr><tr><td><div>http://www.web2py.com/book</div></td></tr></table></div></td></tr><tr><td><div><li class="divider"></li></div></td></tr><tr><td><div><table><tr><td><div>Preface</div></td></tr><tr><td><div>False</div></td></tr><tr><td><div>http://www.web2py.com/book/default/chapter/00</div></td></tr></table></div></td></tr><tr><td><div><table><tr><td><div>Introduction</div></td></tr><tr><td><div>False</div></td></tr><tr><td><div>http://www.web2py.com/book/default/chapter/01</div></td></tr></table></div></td></tr><tr><td><div><table><tr><td><div>Python</div></td></tr><tr><td><div>False</div></td></tr><tr><td><div>http://www.web2py.com/book/default/chapter/02</div></td></tr></table></div></td></tr><tr><td><div><table><tr><td><div>Overview</div></td></tr><tr><td><div>False</div></td></tr><tr><td><div>http://www.web2py.com/book/default/chapter/03</div></td></tr></table></div></td></tr><tr><td><div><table><tr><td><div>The Core</div></td></tr><tr><td><div>False</div></td></tr><tr><td><div>http://www.web2py.com/book/default/chapter/04</div></td></tr></table></div></td></tr><tr><td><div><table><tr><td><div>The Views</div></td></tr><tr><td><div>False</div></td></tr><tr><td><div>http://www.web2py.com/book/default/chapter/05</div></td></tr></table></div></td></tr><tr><td><div><table><tr><td><div>Database</div></td></tr><tr><td><div>False</div></td></tr><tr><td><div>http://www.web2py.com/book/default/chapter/06</div></td></tr></table></div></td></tr><tr><td><div><table><tr><td><div>Forms and Validators</div></td></tr><tr><td><div>False</div></td></tr><tr><td><div>http://www.web2py.com/book/default/chapter/07</div></td></tr></table></div></td></tr><tr><td><div><table><tr><td><div>Email and SMS</div></td></tr><tr><td><div>False</div></td></tr><tr><td><div>http://www.web2py.com/book/default/chapter/08</div></td></tr></table></div></td></tr><tr><td><div><table><tr><td><div>Access Control</div></td></tr><tr><td><div>False</div></td></tr><tr><td><div>http://www.web2py.com/book/default/chapter/09</div></td></tr></table></div></td></tr><tr><td><div><table><tr><td><div>Services</div></td></tr><tr><td><div>False</div></td></tr><tr><td><div>http://www.web2py.com/book/default/chapter/10</div></td></tr></table></div></td></tr><tr><td><div><table><tr><td><div>Ajax Recipes</div></td></tr><tr><td><div>False</div></td></tr><tr><td><div>http://www.web2py.com/book/default/chapter/11</div></td></tr></table></div></td></tr><tr><td><div><table><tr><td><div>Components and Plugins</div></td></tr><tr><td><div>False</div></td></tr><tr><td><div>http://www.web2py.com/book/default/chapter/12</div></td></tr></table></div></td></tr><tr><td><div><table><tr><td><div>Deployment Recipes</div></td></tr><tr><td><div>False</div></td></tr><tr><td><div>http://www.web2py.com/book/default/chapter/13</div></td></tr></table></div></td></tr><tr><td><div><table><tr><td><div>Other Recipes</div></td></tr><tr><td><div>False</div></td></tr><tr><td><div>http://www.web2py.com/book/default/chapter/14</div></td></tr></table></div></td></tr><tr><td><div><table><tr><td><div>Helping web2py</div></td></tr><tr><td><div>False</div></td></tr><tr><td><div>http://www.web2py.com/book/default/chapter/15</div></td></tr></table></div></td></tr><tr><td><div><table><tr><td><div>Buy web2py\'s book</div></td></tr><tr><td><div>False</div></td></tr><tr><td><div>http://stores.lulu.com/web2py</div></td></tr></table></div></td></tr></table></div></td></tr></table></div></td></tr><tr><td><div><table><tr><td><div>Community</div></td></tr><tr><td><div>False</div></td></tr><tr><td><div>None</div></td></tr><tr><td><div><table><tr><td><div><table><tr><td><div>Groups</div></td></tr><tr><td><div>False</div></td></tr><tr><td><div>http://www.web2py.com/examples/default/usergroups</div></td></tr></table></div></td></tr><tr><td><div><table><tr><td><div>Twitter</div></td></tr><tr><td><div>False</div></td></tr><tr><td><div>http://twitter.com/web2py</div></td></tr></table></div></td></tr><tr><td><div><table><tr><td><div>Live Chat</div></td></tr><tr><td><div>False</div></td></tr><tr><td><div>http://webchat.freenode.net/?channels=web2py</div></td></tr></table></div></td></tr></table></div></td></tr></table></div></td></tr></table></div></td></tr><tr><td style="font-weight:bold;vertical-align:top;">meta</td><td style="vertical-align:top;">:</td><td><div><table><tr><td style="font-weight:bold;vertical-align:top;">author</td><td style="vertical-align:top;">:</td><td><div>Your Name &lt;you@example.com&gt;</div></td></tr><tr><td style="font-weight:bold;vertical-align:top;">description</td><td style="vertical-align:top;">:</td><td><div>a cool new app</div></td></tr><tr><td style="font-weight:bold;vertical-align:top;">generator</td><td style="vertical-align:top;">:</td><td><div>Web2py Web Framework</div></td></tr><tr><td style="font-weight:bold;vertical-align:top;">keywords</td><td style="vertical-align:top;">:</td><td><div>web2py, python, framework</div></td></tr></table></div></td></tr><tr><td style="font-weight:bold;vertical-align:top;">models_to_run</td><td style="vertical-align:top;">:</td><td><div><table><tr><td><div>^\\w+\\.py$</div></td></tr><tr><td><div>^default/\\w+\\.py$</div></td></tr><tr><td><div>^default/fillDBFromCSV/\\w+\\.py$</div></td></tr></table></div></td></tr><tr><td style="font-weight:bold;vertical-align:top;">postprocessing</td><td style="vertical-align:top;">:</td><td><div><table></table></div></td></tr><tr><td style="font-weight:bold;vertical-align:top;">session_client</td><td style="vertical-align:top;">:</td><td><div>127.0.0.1</div></td></tr><tr><td style="font-weight:bold;vertical-align:top;">session_cookie_compression_level</td><td style="vertical-align:top;">:</td><td><div>None</div></td></tr><tr><td style="font-weight:bold;vertical-align:top;">session_cookie_expires</td><td style="vertical-align:top;">:</td><td><div>None</div></td></tr><tr><td style="font-weight:bold;vertical-align:top;">session_cookie_key</td><td style="vertical-align:top;">:</td><td><div>None</div></td></tr><tr><td style="font-weight:bold;vertical-align:top;">session_data_name</td><td style="vertical-align:top;">:</td><td><div>session_data_tidetest</div></td></tr><tr><td style="font-weight:bold;vertical-align:top;">session_file</td><td style="vertical-align:top;">:</td><td><div>None</div></td></tr><tr><td style="font-weight:bold;vertical-align:top;">session_filename</td><td style="vertical-align:top;">:</td><td><div>C:\\Users\\Atahan\\Desktop\\WB\\Tidenow\\applications\\tidetest\\sessions\\127.0.0.1-eabbc045-af22-41a6-83ea-ac46f18d37c2</div></td></tr><tr><td style="font-weight:bold;vertical-align:top;">session_hash</td><td style="vertical-align:top;">:</td><td><div>c0762cbf4baf7f9af97c051e7fcb8083</div></td></tr><tr><td style="font-weight:bold;vertical-align:top;">session_id</td><td style="vertical-align:top;">:</td><td><div>127.0.0.1-eabbc045-af22-41a6-83ea-ac46f18d37c2</div></td></tr><tr><td style="font-weight:bold;vertical-align:top;">session_id_name</td><td style="vertical-align:top;">:</td><td><div>session_id_tidetest</div></td></tr><tr><td style="font-weight:bold;vertical-align:top;">session_masterapp</td><td style="vertical-align:top;">:</td><td><div>tidetest</div></td></tr><tr><td style="font-weight:bold;vertical-align:top;">session_new</td><td style="vertical-align:top;">:</td><td><div>True</div></td></tr><tr><td style="font-weight:bold;vertical-align:top;">session_storage_type</td><td style="vertical-align:top;">:</td><td><div>file</div></td></tr><tr><td style="font-weight:bold;vertical-align:top;">status</td><td style="vertical-align:top;">:</td><td><div>200</div></td></tr><tr><td style="font-weight:bold;vertical-align:top;">subtitle</td><td style="vertical-align:top;">:</td><td><div></div></td></tr><tr><td style="font-weight:bold;vertical-align:top;">title</td><td style="vertical-align:top;">:</td><td><div>Tidetest</div></td></tr><tr><td style="font-weight:bold;vertical-align:top;">view</td><td style="vertical-align:top;">:</td><td><div>default/fillDBFromCSV.html</div></td></tr></table></div>'
tRp282
sS'locals'
p283
(dp284
S'err'
p285
S"SSLError(1, u'[SSL: CERTIFICATE_VERIFY_FAILED] certificate verify failed (_ssl.c:590)')"
p286
sS'h'
S'<httplib.HTTPSConnection instance>'
p287
sS'self'
p288
S'<urllib2.HTTPSHandler instance>'
p289
sS'req'
p290
S'<urllib2.Request instance>'
p291
sS'headers'
p292
S"{'Connection': 'close', 'Host': 'drive.google.com', 'User-Agent': 'Python-urllib/2.7'}"
p293
sS'host'
p294
S"'drive.google.com'"
p295
sS'http_class'
p296
S'<class httplib.HTTPSConnection>'
p297
sS'http_conn_args'
p298
S"{'context': None}"
p299
sssS'traceback'
p300
S'Traceback (most recent call last):\n  File "C:\\Users\\Atahan\\Desktop\\WB\\Tidenow\\gluon\\restricted.py", line 227, in restricted\n    exec ccode in environment\n  File "C:\\Users\\Atahan\\Desktop\\WB\\Tidenow\\applications\\tidetest\\controllers/default.py", line 161, in <module>\n  File "C:\\Users\\Atahan\\Desktop\\WB\\Tidenow\\gluon\\globals.py", line 412, in <lambda>\n    self._caller = lambda f: f()\n  File "C:\\Users\\Atahan\\Desktop\\WB\\Tidenow\\applications\\tidetest\\controllers/default.py", line 96, in fillDBFromCSV\n    response = urllib2.urlopen(\'https://drive.google.com/uc?export=download&id=0B4Nh6ak8KjZBdktUS0N2cVVIcUE\')\n  File "C:\\Python27\\lib\\urllib2.py", line 154, in urlopen\n    return opener.open(url, data, timeout)\n  File "C:\\Python27\\lib\\urllib2.py", line 431, in open\n    response = self._open(req, data)\n  File "C:\\Python27\\lib\\urllib2.py", line 449, in _open\n    \'_open\', req)\n  File "C:\\Python27\\lib\\urllib2.py", line 409, in _call_chain\n    result = func(*args)\n  File "C:\\Python27\\lib\\urllib2.py", line 1240, in https_open\n    context=self._context)\n  File "C:\\Python27\\lib\\urllib2.py", line 1197, in do_open\n    raise URLError(err)\nURLError: <urlopen error [SSL: CERTIFICATE_VERIFY_FAILED] certificate verify failed (_ssl.c:590)>\n'
p301
s.