(dp1
S'output'
p2
S"<type 'exceptions.IndexError'> list index out of range"
p3
sS'layer'
p4
S'C:\\Users\\Ata\\Desktop\\WB\\web2py\\applications\\tidetest\\views\\default/index2.html'
p5
sS'code'
p6
S'response.write(\'<!DOCTYPE html>\\r\\n<html>\\r\\n    <head class="width-percent-100"> \\r\\n        <meta charset="utf-8">         \\r\\n        <meta name="viewport" content="width=device-width, initial-scale=1.0">         \\r\\n        <meta name="generator" content="Script Eden ( http://scripteden.net/ ) Template Builder v2.0.0">         \\r\\n        <!--pageMeta-->         \\r\\n        <!-- Loading Bootstrap -->\\r\\n        <link rel="stylesheet" href="\', escape=False)\nresponse.write(URL(\'static\',\'extra/bootstrap/css/bootstrap.css\'))\nresponse.write(\'"/>\\r\\n        <!-- Loading Flat UI -->\\r\\n        <link rel="stylesheet" href="\', escape=False)\nresponse.write(URL(\'static\',\'extra/css/flat-ui.css\'))\nresponse.write(\'"/>\\r\\n        <link rel="stylesheet" href="\', escape=False)\nresponse.write(URL(\'static\',\'extra/css/style.css\'))\nresponse.write(\'"/>\\r\\n        <link rel="stylesheet" href="\', escape=False)\nresponse.write(URL(\'static\',\'extra/css/style.complete.css\'))\nresponse.write(\'"/>\\r\\n        <!-- HTML5 shim, for IE6-8 support of HTML5 elements. All other JS at the end of file. -->         \\r\\n        <!--[if lt IE 9]>\\r\\n      <script src="\', escape=False)\nresponse.write(URL(\'static\',\'extra/js/html5shiv.js\'))\nresponse.write(\'"></script>\\r\\n      <script src="\', escape=False)\nresponse.write(URL(\'static\',\'extra/js/respond.min.js\'))\nresponse.write(\'"></script>\\r\\n    <![endif]-->         \\r\\n        <!--headerIncludes-->         \\r\\n        <style type="text/css">\\r\\n            .paragraph-logo\\r\\n            {\\r\\n            font-size: 25px;\\r\\n            }\\r\\n\\r\\n</style>\\r\\n    </head>     \\r\\n    <body class="width-percent-100">\\r\\n        <div id="page" class="page backgrounding width-percent-100"> \\r\\n            <header class="item header margin-top-0  backgrounding width-percent-100" id="header9">\\r\\n                <div class="wrapper  header-transparent"> \\r\\n                    <div class="container">\\r\\n                        <nav role="navigation" class="navbar plain margin-top-20" style="display: block;"> \\r\\n                            <div class="navbar-header"> \\r\\n                                <button data-target="#navbar-collapse-02" data-toggle="collapse" class="navbar-toggle" type="button"> \\r\\n                                    <span class="sr-only">Toggle navigation</span> \\r\\n                                </button>                                 \\r\\n                                <a href="#" class="navbar-brand" style="line-height: 60px; padding-left: 0px;">\\r\\n                                    <img alt="" src="images/icons/brush.svg" style="height: 60px;">                                                                                                                                                                                                                                                                                                                                                                                                                                                                                                                                                                                                                                                                                                                                                                                                                                                                                                                                                                                                                                                                                                                                                                                                                                                                                                                                                                                                                                                                                                                                                                                                                                                                                                                                                                                                                                                                                                                                                                                                                                                                                                                                                                                                                                                                                                                                                                                                                                                                                                                                                                                                                                                                                                                                                                                                                                                                                                                                                                                                                                                                                                                                                                                                                                                                                                                                                                                                                                                                                                                                                                                                                                                                                                                                                                                                                                                                                                                                                                                                                                                                                                                                                                                                                                                                                                                                                                                                                                                                                                                                                                                                                                                                                                                                                                                                                                                                                                                                                     TideNow\\r\\n                                </a>                                 \\r\\n                            </div>                             \\r\\n                            <div id="navbar-collapse-02" class="collapse navbar-collapse"> \\r\\n                                <ul class="nav navbar-nav navbar-right"> \\r\\n                                    <li class="active propClone">\\r\\n                                        <a href="#">Home</a>\\r\\n                                    </li>                                     \\r\\n                                    <li class="propClone">\\r\\n                                        <a href="#">Contact</a>\\r\\n                                    </li>                                     \\r\\n                                </ul>                                 \\r\\n                            </div>\\r\\n                            <p style="display: block;" class="paragraph-logo">Get instant deals on select local restaurants.</p>\\r\\n                            <!-- /.navbar-collapse -->                             \\r\\n                        </nav>                         \\r\\n                        <!-- /.row -->\\r\\n                    </div>\\r\\n                    <!-- /.container -->                     \\r\\n                </div>\\r\\n                <img src="\', escape=False)\nresponse.write(URL(\'static\',\'extra/static/header.jpg\'))\nresponse.write(\'" class="background-fixed" />\\r\\n                <!-- /.wrapper -->                 \\r\\n            </header>\\r\\n            <!-- /.item -->\\r\\n            <!-- Start Footer 1-4 -->             \\r\\n            <!--// END Footer 1-4 -->\\r\\n            <div class="item portfolio" id="portfolio2"> \\r\\n                <div class="container"> \\r\\n                    <!-- /.row -->\\r\\n                    \', escape=False)\nfor i in range(3):\n    response.write(\'\\r\\n                    <div class="row margin-bottom-20">\\r\\n                        <div class="col-md-3 col-sm-6 col-xs-6"> \\r\\n                            <a href="" class="over img-rounded"> \\r\\n                                <img src="static/logos/cafe_baklava_logo.png" class="width-100" alt="" id="testImage">\\r\\n                                <div class="">\\r\\n                                    <p class="client-name" style="display: block;">Cafe Baklava \', escape=False)\n    allRest[0].name\n    response.write(\'</p>\\r\\n                                    <p class="client-details" style="display: block;">Mediterranean Grill<br></p>\\r\\n                                    <p class="client-description" style="display: block;"><span id="time" class="time-to-the-left">10:43</span> Left for 43% Off</p>\\r\\n                                </div>                                 \\r\\n                            </a>                             \\r\\n                        </div>\\r\\n                        <!-- /.col-md-3 col -->                         \\r\\n                        <div class="col-md-3 col-sm-6 col-xs-6"> \\r\\n                            <a href="" class="over img-rounded"> \\r\\n                                <img src="static/logos/ephesus_logo.png" class="width-100" alt="">\\r\\n                                <div class="">\\r\\n                                    <p class="client-name" style="display: block;">Ephesus</p>\\r\\n                                    <p class="client-details" style="display: block;">Turkish and Greek<br></p>\\r\\n                                    <p class="client-description" style="display: block;"><span id="time"></span>31% Off</p>\\r\\n                                </div>                                 \\r\\n                            </a>                             \\r\\n                        </div>\\r\\n                        <!-- /.col-md-3 col -->                         \\r\\n                        <div class="col-md-3 col-sm-6 col-xs-6"> \\r\\n                            <a href="" class="over propClone img-rounded"> \\r\\n                                <img src="static/logos/evvia.png" class="width-100" alt="">\\r\\n                                <div class="">\\r\\n                                    <p class="client-name" style="display: block;">Evvia</p>\\r\\n                                    <p class="client-details" style="display: block;">Greek</p>\\r\\n                                    <p class="client-description" style="display: block;">12% Off</p>\\r\\n                                </div>                                 \\r\\n                            </a>                             \\r\\n                        </div>\\r\\n                        <!-- /.col-md-3 col -->                         \\r\\n                        <div class="col-md-3 col-sm-6 col-xs-6"> \\r\\n                            <a href="" class="over img-rounded"> \\r\\n                                <img src="static/logos/galata_logo.png" class="width-100 client-picture" alt="">\\r\\n                                <div class="">\\r\\n                                    <p class="client-name" style="display: block;">Galata Bistro</p>\\r\\n                                    <p class="client-details" style="display: block;">Mediterranean<br></p>\\r\\n                                    <p class="client-description" style="display: block;">26% Off</p>\\r\\n                                </div>                                 \\r\\n                            </a>                             \\r\\n                        </div>\\r\\n                        <!-- /.col-md-3 col -->\\r\\n\\r\\n                    </div>\\r\\n                    \', escape=False)\n    pass\nresponse.write(\'\\r\\n                    <!-- /.row -->                     \\r\\n                    <div class="row margin-bottom-20"> \\r\\n                        <div class="col-md-3 col-sm-6 col-xs-6">\\r\\n                            <a href="" class="over img-rounded"> \\r\\n                                <img src="static/logos/olympus_logo.png" class="width-100" alt="">\\r\\n                                <div class="">\\r\\n                                    <p class="client-name" style="display: block;">Olympus Cafe</p>\\r\\n                                    <p class="client-details" style="display: block;">Bakery, Breakfast &amp; Lunch<br></p>\\r\\n                                    <p class="client-description" style="display: block;">17% Off</p>\\r\\n                                </div>                                 \\r\\n                            </a>                             \\r\\n                        </div>\\r\\n                        <!-- /.col-md-3 col -->                         \\r\\n                        <div class="col-md-3 col-sm-6 col-xs-6"> \\r\\n                            <a href="" class="over img-rounded"> \\r\\n                                <img src="static/logos/shana.png" class="width-100" alt="">\\r\\n                                <div class="">\\r\\n                                    <p class="client-name" style="display: block;">Shana Thai</p>\\r\\n                                    <p class="client-details" style="display: block;">Thai<br></p>\\r\\n                                    <p class="client-description" style="display: block;">49% Off</p>\\r\\n                                </div>                                 \\r\\n                            </a>                             \\r\\n                        </div>\\r\\n                        <!-- /.col-md-3 col -->                         \\r\\n                        <div class="col-md-3 col-sm-6 col-xs-6"> \\r\\n                            <a href="" class="over img-rounded"> \\r\\n                                <img src="static/logos/tamarine.png" class="width-100" alt="">\\r\\n                                <div class="">\\r\\n                                    <p class="client-name" style="display: block;">Tamarine</p>\\r\\n                                    <p class="client-details" style="display: block;">Vietnamese<br></p>\\r\\n                                    <p class="client-description" style="display: block;">14% Off</p>\\r\\n                                </div>                                 \\r\\n                            </a>                             \\r\\n                        </div>\\r\\n                        <!-- /.col-md-3 col -->                         \\r\\n                        <div class="col-md-3 col-sm-6 col-xs-6"> \\r\\n                            <a href="" class="over img-rounded"> \\r\\n                                <img src="static/logos/joya.png" class="width-100" alt="">\\r\\n                                <div class="">\\r\\n                                    <p class="client-name" style="display: block;">Joya</p>\\r\\n                                    <p class="client-details" style="display: block;">Latin American, Tapas Bar<br></p>\\r\\n                                    <p class="client-description" style="display: block;">36% Off</p>\\r\\n                                </div>                                 \\r\\n                            </a>                             \\r\\n                        </div>\\r\\n                        <!-- /.col-md-3 col -->                         \\r\\n                    </div>\\r\\n                    <!-- /.row -->                     \\r\\n                </div>\\r\\n                <!-- /.container -->                 \\r\\n            </div>\\r\\n            <!-- /.item -->\\r\\n            <!-- Start Content Block 1-6 -->             \\r\\n            <!-- // End Content Block 1-6 -->\\r\\n            <!-- Start Footer Copyright Bar -->             \\r\\n            <!--// END Footer Copyright Bar -->\\r\\n        </div>\\r\\n        <div class="copyright-bar bg-black"> \\r\\n            <div class="container"> \\r\\n                <div class="editContent" style="">\\r\\n                    <p class="pull-left small"> \\r\\n\\t\\xc2\\xa9 TideNow - Elegant deals for everyone.</p>\\r\\n                </div>                 \\r\\n                <div class="editContent" style="">\\r\\n                    <p class="pull-right small"> \\r\\n\\tFrom deals to meals.</p>\\r\\n                </div>                 \\r\\n            </div>             \\r\\n        </div>         \\r\\n        <!-- /#page -->         \\r\\n        <!-- Load JS here for greater good =============================-->\\r\\n        <script>\\r\\nfunction startTimer(duration, display) {\\r\\n    var timer = duration, minutes, seconds;\\r\\n    setInterval(function () {\\r\\n        minutes = parseInt(timer / 60, 10);\\r\\n        seconds = parseInt(timer % 60, 10);\\r\\n\\r\\n        minutes = minutes < 10 ? "0" + minutes : minutes;\\r\\n        seconds = seconds < 10 ? "0" + seconds : seconds;\\r\\n\\r\\n        display.textContent = minutes + ":" + seconds;\\r\\n\\r\\n        if (--timer < 0) {\\r\\n            timer = duration;\\r\\n        }\\r\\n    }, 1000);\\r\\n}\\r\\n\\r\\nwindow.onload = function () {\\r\\n    var randomMinute = Math.floor(Math.random() * 30) + 10;\\r\\n    var randomSecond = Math.floor(Math.random() * 59);\\r\\n\\tvar fiveMinutes = randomSecond * randomMinute,\\r\\n\\tdisplay = document.querySelector(\\\'#time\\\');\\r\\n\\tstartTimer(fiveMinutes, display);\\r\\n};\\r\\n        </script>\\r\\n    </body>\\r\\n</html>\', escape=False)'
p7
sS'snapshot'
p8
(dp9
S'exception'
p10
(dp11
S'__hash__'
p12
S"<method-wrapper '__hash__' of exceptions.IndexError object>"
p13
sS'__setattr__'
p14
S"<method-wrapper '__setattr__' of exceptions.IndexError object>"
p15
sS'__reduce_ex__'
p16
S'<built-in method __reduce_ex__ of exceptions.IndexError object>'
p17
sS'__getslice__'
p18
S"<method-wrapper '__getslice__' of exceptions.IndexError object>"
p19
sS'__getitem__'
p20
S"<method-wrapper '__getitem__' of exceptions.IndexError object>"
p21
sS'__setstate__'
p22
S'<built-in method __setstate__ of exceptions.IndexError object>'
p23
sS'__reduce__'
p24
S'<built-in method __reduce__ of exceptions.IndexError object>'
p25
sS'__str__'
p26
S"<method-wrapper '__str__' of exceptions.IndexError object>"
p27
sS'__format__'
p28
S'<built-in method __format__ of exceptions.IndexError object>'
p29
sS'__getattribute__'
p30
S"<method-wrapper '__getattribute__' of exceptions.IndexError object>"
p31
sS'__class__'
p32
S"<type 'exceptions.IndexError'>"
p33
sS'__unicode__'
p34
S'<built-in method __unicode__ of exceptions.IndexError object>'
p35
sS'__delattr__'
p36
S"<method-wrapper '__delattr__' of exceptions.IndexError object>"
p37
sS'__subclasshook__'
p38
S'<built-in method __subclasshook__ of type object>'
p39
sS'__repr__'
p40
S"<method-wrapper '__repr__' of exceptions.IndexError object>"
p41
sS'args'
p42
S"('list index out of range',)"
p43
sS'__dict__'
p44
S'{}'
p45
sS'__sizeof__'
p46
S'<built-in method __sizeof__ of exceptions.IndexError object>'
p47
sS'__doc__'
p48
S"'Sequence index out of range.'"
p49
sS'__init__'
p50
S"<method-wrapper '__init__' of exceptions.IndexError object>"
p51
sS'__new__'
p52
S'<built-in method __new__ of type object>'
p53
ssS'evalue'
p54
S'list index out of range'
p55
sS'request'
p56
cgluon.html
XML_unpickle
p57
(S's\xa3^\x00\x00<div><table><tr><td style="font-weight:bold;vertical-align:top;">ajax</td><td style="vertical-align:top;">:</td><td><div>False</div></td></tr><tr><td style="font-weight:bold;vertical-align:top;">application</td><td style="vertical-align:top;">:</td><td><div>tidetest</div></td></tr><tr><td style="font-weight:bold;vertical-align:top;">args</td><td style="vertical-align:top;">:</td><td><div><table></table></div></td></tr><tr><td style="font-weight:bold;vertical-align:top;">cid</td><td style="vertical-align:top;">:</td><td><div>None</div></td></tr><tr><td style="font-weight:bold;vertical-align:top;">client</td><td style="vertical-align:top;">:</td><td><div>127.0.0.1</div></td></tr><tr><td style="font-weight:bold;vertical-align:top;">controller</td><td style="vertical-align:top;">:</td><td><div>default</div></td></tr><tr><td style="font-weight:bold;vertical-align:top;">cookies</td><td style="vertical-align:top;">:</td><td><div><table><tr><td style="font-weight:bold;vertical-align:top;">session_id_admin</td><td style="vertical-align:top;">:</td><td><div>127.0.0.1-cf16043a-0d3e-4c33-9494-500aef19bc81<table><tr><td style="font-weight:bold;vertical-align:top;">comment</td><td style="vertical-align:top;">:</td><td><div></div></td></tr><tr><td style="font-weight:bold;vertical-align:top;">domain</td><td style="vertical-align:top;">:</td><td><div></div></td></tr><tr><td style="font-weight:bold;vertical-align:top;">expires</td><td style="vertical-align:top;">:</td><td><div></div></td></tr><tr><td style="font-weight:bold;vertical-align:top;">httponly</td><td style="vertical-align:top;">:</td><td><div></div></td></tr><tr><td style="font-weight:bold;vertical-align:top;">max-age</td><td style="vertical-align:top;">:</td><td><div></div></td></tr><tr><td style="font-weight:bold;vertical-align:top;">path</td><td style="vertical-align:top;">:</td><td><div></div></td></tr><tr><td style="font-weight:bold;vertical-align:top;">secure</td><td style="vertical-align:top;">:</td><td><div></div></td></tr><tr><td style="font-weight:bold;vertical-align:top;">version</td><td style="vertical-align:top;">:</td><td><div></div></td></tr></table></div></td></tr><tr><td style="font-weight:bold;vertical-align:top;">session_id_tidetest</td><td style="vertical-align:top;">:</td><td><div>127.0.0.1-c621097b-8e98-43cf-b6b6-f6c604fe0907<table><tr><td style="font-weight:bold;vertical-align:top;">comment</td><td style="vertical-align:top;">:</td><td><div></div></td></tr><tr><td style="font-weight:bold;vertical-align:top;">domain</td><td style="vertical-align:top;">:</td><td><div></div></td></tr><tr><td style="font-weight:bold;vertical-align:top;">expires</td><td style="vertical-align:top;">:</td><td><div></div></td></tr><tr><td style="font-weight:bold;vertical-align:top;">httponly</td><td style="vertical-align:top;">:</td><td><div></div></td></tr><tr><td style="font-weight:bold;vertical-align:top;">max-age</td><td style="vertical-align:top;">:</td><td><div></div></td></tr><tr><td style="font-weight:bold;vertical-align:top;">path</td><td style="vertical-align:top;">:</td><td><div></div></td></tr><tr><td style="font-weight:bold;vertical-align:top;">secure</td><td style="vertical-align:top;">:</td><td><div></div></td></tr><tr><td style="font-weight:bold;vertical-align:top;">version</td><td style="vertical-align:top;">:</td><td><div></div></td></tr></table></div></td></tr><tr><td style="font-weight:bold;vertical-align:top;">session_id_welcome</td><td style="vertical-align:top;">:</td><td><div>127.0.0.1-d55fac2e-7cc1-4ad7-9f0b-f01c885604ec<table><tr><td style="font-weight:bold;vertical-align:top;">comment</td><td style="vertical-align:top;">:</td><td><div></div></td></tr><tr><td style="font-weight:bold;vertical-align:top;">domain</td><td style="vertical-align:top;">:</td><td><div></div></td></tr><tr><td style="font-weight:bold;vertical-align:top;">expires</td><td style="vertical-align:top;">:</td><td><div></div></td></tr><tr><td style="font-weight:bold;vertical-align:top;">httponly</td><td style="vertical-align:top;">:</td><td><div></div></td></tr><tr><td style="font-weight:bold;vertical-align:top;">max-age</td><td style="vertical-align:top;">:</td><td><div></div></td></tr><tr><td style="font-weight:bold;vertical-align:top;">path</td><td style="vertical-align:top;">:</td><td><div></div></td></tr><tr><td style="font-weight:bold;vertical-align:top;">secure</td><td style="vertical-align:top;">:</td><td><div></div></td></tr><tr><td style="font-weight:bold;vertical-align:top;">version</td><td style="vertical-align:top;">:</td><td><div></div></td></tr></table></div></td></tr></table></div></td></tr><tr><td style="font-weight:bold;vertical-align:top;">env</td><td style="vertical-align:top;">:</td><td><div><table><tr><td style="font-weight:bold;vertical-align:top;">HTTP_ACCEPT</td><td style="vertical-align:top;">:</td><td><div>text/html,application/xhtml+xml,application/xml;q=0.9,image/webp,*/*;q=0.8</div></td></tr><tr><td style="font-weight:bold;vertical-align:top;">HTTP_ACCEPT_ENCODING</td><td style="vertical-align:top;">:</td><td><div>gzip, deflate, sdch</div></td></tr><tr><td style="font-weight:bold;vertical-align:top;">HTTP_ACCEPT_LANGUAGE</td><td style="vertical-align:top;">:</td><td><div>en-US,en;q=0.8,tr;q=0.6</div></td></tr><tr><td style="font-weight:bold;vertical-align:top;">HTTP_CACHE_CONTROL</td><td style="vertical-align:top;">:</td><td><div>max-age=0</div></td></tr><tr><td style="font-weight:bold;vertical-align:top;">HTTP_CONNECTION</td><td style="vertical-align:top;">:</td><td><div>keep-alive</div></td></tr><tr><td style="font-weight:bold;vertical-align:top;">HTTP_COOKIE</td><td style="vertical-align:top;">:</td><td><div>session_id_welcome=127.0.0.1-d55fac2e-7cc1-4ad7-9f0b-f01c885604ec; session_id_admin=127.0.0.1-cf16043a-0d3e-4c33-9494-500aef19bc81; session_id_tidetest=127.0.0.1-c621097b-8e98-43cf-b6b6-f6c604fe0907</div></td></tr><tr><td style="font-weight:bold;vertical-align:top;">HTTP_DNT</td><td style="vertical-align:top;">:</td><td><div>1</div></td></tr><tr><td style="font-weight:bold;vertical-align:top;">HTTP_HOST</td><td style="vertical-align:top;">:</td><td><div>127.0.0.1:8001</div></td></tr><tr><td style="font-weight:bold;vertical-align:top;">HTTP_UPGRADE_INSECURE_REQUESTS</td><td style="vertical-align:top;">:</td><td><div>1</div></td></tr><tr><td style="font-weight:bold;vertical-align:top;">HTTP_USER_AGENT</td><td style="vertical-align:top;">:</td><td><div>Mozilla/5.0 (Windows NT 6.1; WOW64) AppleWebKit/537.36 (KHTML, like Gecko) Chrome/46.0.2490.86 Safari/537.36</div></td></tr><tr><td style="font-weight:bold;vertical-align:top;">PATH_INFO</td><td style="vertical-align:top;">:</td><td><div>/tidetest/default/index2</div></td></tr><tr><td style="font-weight:bold;vertical-align:top;">QUERY_STRING</td><td style="vertical-align:top;">:</td><td><div></div></td></tr><tr><td style="font-weight:bold;vertical-align:top;">REMOTE_ADDR</td><td style="vertical-align:top;">:</td><td><div>127.0.0.1</div></td></tr><tr><td style="font-weight:bold;vertical-align:top;">REMOTE_PORT</td><td style="vertical-align:top;">:</td><td><div>56128</div></td></tr><tr><td style="font-weight:bold;vertical-align:top;">REQUEST_METHOD</td><td style="vertical-align:top;">:</td><td><div>GET</div></td></tr><tr><td style="font-weight:bold;vertical-align:top;">SCRIPT_NAME</td><td style="vertical-align:top;">:</td><td><div></div></td></tr><tr><td style="font-weight:bold;vertical-align:top;">SERVER_NAME</td><td style="vertical-align:top;">:</td><td><div>tocr2-PC</div></td></tr><tr><td style="font-weight:bold;vertical-align:top;">SERVER_PORT</td><td style="vertical-align:top;">:</td><td><div>8001</div></td></tr><tr><td style="font-weight:bold;vertical-align:top;">SERVER_PROTOCOL</td><td style="vertical-align:top;">:</td><td><div>HTTP/1.1</div></td></tr><tr><td style="font-weight:bold;vertical-align:top;">SERVER_SOFTWARE</td><td style="vertical-align:top;">:</td><td><div>Rocket 1.2.6</div></td></tr><tr><td style="font-weight:bold;vertical-align:top;">app_folders</td><td style="vertical-align:top;">:</td><td><div>set([&#x27;C:\\\\Users\\\\Ata\\\\Desktop\\\\WB\\\\web2py\\\\applications\\\\admin\\\\&#x27;, &#x27;C:\\\\Users\\\\Ata\\\\Desktop\\\\WB\\\\web2py\\\\applications\\\\welcome\\\\&#x27;, &#x27;C:\\\\Users\\\\Ata\\\\Desktop\\\\WB\\\\web2py\\\\applications\\\\examples\\\\&#x27;, &#x27;C:\\\\Users\\\\Ata\\\\Desktop\\\\WB\\\\web2py\\\\applications\\\\tidetest\\\\&#x27;])</div></td></tr><tr><td style="font-weight:bold;vertical-align:top;">applications_parent</td><td style="vertical-align:top;">:</td><td><div>C:\\Users\\Ata\\Desktop\\WB\\web2py</div></td></tr><tr><td style="font-weight:bold;vertical-align:top;">cmd_args</td><td style="vertical-align:top;">:</td><td><div><table></table></div></td></tr><tr><td style="font-weight:bold;vertical-align:top;">cmd_options</td><td style="vertical-align:top;">:</td><td><div>&lt;Values at 0x33f3b70: {&#x27;verbose&#x27;: False, &#x27;ip&#x27;: &#x27;127.0.0.1&#x27;, &#x27;debuglevel&#x27;: 30, &#x27;with_scheduler&#x27;: False, &#x27;ips&#x27;: [&#x27;192.168.88.196&#x27;, &#x27;fe80::edad:44fb:97d9:d09%11&#x27;], &#x27;shutdown_timeout&#x27;: 5, &#x27;taskbar&#x27;: False, &#x27;with_coverage&#x27;: False, &#x27;scheduler_groups&#x27;: None, &#x27;port&#x27;: 8000, &#x27;maxthreads&#x27;: None, &#x27;softcron&#x27;: False, &#x27;server_name&#x27;: &#x27;tocr2-PC&#x27;, &#x27;bpython&#x27;: False, &#x27;nogui&#x27;: False, &#x27;pid_filename&#x27;: &#x27;httpserver.pid&#x27;, &#x27;print_errors&#x27;: False, &#x27;extcron&#x27;: False, &#x27;runcron&#x27;: False, &#x27;run_system_tests&#x27;: False, &#x27;test&#x27;: None, &#x27;folder&#x27;: &#x27;C:\\\\Users\\\\Ata\\\\Desktop\\\\WB\\\\web2py&#x27;, &#x27;config&#x27;: &#x27;&#x27;, &#x27;minthreads&#x27;: None, &#x27;shell&#x27;: None, &#x27;run&#x27;: &#x27;&#x27;, &#x27;log_filename&#x27;: &#x27;httpserver.log&#x27;, &#x27;profiler_dir&#x27;: None, &#x27;args&#x27;: [&#x27;&#x27;], &#x27;socket_timeout&#x27;: 5, &#x27;ssl_ca_certificate&#x27;: None, &#x27;scheduler&#x27;: None, &#x27;interfaces&#x27;: None, &#x27;ssl_private_key&#x27;: &#x27;&#x27;, &#x27;gae&#x27;: None, &#x27;password&#x27;: &#x27;&lt;ask&gt;&#x27;, &#x27;request_queue_size&#x27;: 5, &#x27;ssl_certificate&#x27;: &#x27;&#x27;, &#x27;cronjob&#x27;: False, &#x27;numthreads&#x27;: None, &#x27;quiet&#x27;: False, &#x27;import_models&#x27;: False, &#x27;timeout&#x27;: 10, &#x27;plain&#x27;: False, &#x27;nobanner&#x27;: False}&gt;</div></td></tr><tr><td style="font-weight:bold;vertical-align:top;">db_sessions</td><td style="vertical-align:top;">:</td><td><div>set([])</div></td></tr><tr><td style="font-weight:bold;vertical-align:top;">debugging</td><td style="vertical-align:top;">:</td><td><div>True</div></td></tr><tr><td style="font-weight:bold;vertical-align:top;">gluon_parent</td><td style="vertical-align:top;">:</td><td><div>C:\\Users\\Ata\\Desktop\\WB\\web2py</div></td></tr><tr><td style="font-weight:bold;vertical-align:top;">http_accept</td><td style="vertical-align:top;">:</td><td><div>text/html,application/xhtml+xml,application/xml;q=0.9,image/webp,*/*;q=0.8</div></td></tr><tr><td style="font-weight:bold;vertical-align:top;">http_accept_encoding</td><td style="vertical-align:top;">:</td><td><div>gzip, deflate, sdch</div></td></tr><tr><td style="font-weight:bold;vertical-align:top;">http_accept_language</td><td style="vertical-align:top;">:</td><td><div>en-US,en;q=0.8,tr;q=0.6</div></td></tr><tr><td style="font-weight:bold;vertical-align:top;">http_cache_control</td><td style="vertical-align:top;">:</td><td><div>max-age=0</div></td></tr><tr><td style="font-weight:bold;vertical-align:top;">http_connection</td><td style="vertical-align:top;">:</td><td><div>keep-alive</div></td></tr><tr><td style="font-weight:bold;vertical-align:top;">http_cookie</td><td style="vertical-align:top;">:</td><td><div>session_id_welcome=127.0.0.1-d55fac2e-7cc1-4ad7-9f0b-f01c885604ec; session_id_admin=127.0.0.1-cf16043a-0d3e-4c33-9494-500aef19bc81; session_id_tidetest=127.0.0.1-c621097b-8e98-43cf-b6b6-f6c604fe0907</div></td></tr><tr><td style="font-weight:bold;vertical-align:top;">http_dnt</td><td style="vertical-align:top;">:</td><td><div>1</div></td></tr><tr><td style="font-weight:bold;vertical-align:top;">http_host</td><td style="vertical-align:top;">:</td><td><div>127.0.0.1:8001</div></td></tr><tr><td style="font-weight:bold;vertical-align:top;">http_upgrade_insecure_requests</td><td style="vertical-align:top;">:</td><td><div>1</div></td></tr><tr><td style="font-weight:bold;vertical-align:top;">http_user_agent</td><td style="vertical-align:top;">:</td><td><div>Mozilla/5.0 (Windows NT 6.1; WOW64) AppleWebKit/537.36 (KHTML, like Gecko) Chrome/46.0.2490.86 Safari/537.36</div></td></tr><tr><td style="font-weight:bold;vertical-align:top;">is_jython</td><td style="vertical-align:top;">:</td><td><div>False</div></td></tr><tr><td style="font-weight:bold;vertical-align:top;">is_pypy</td><td style="vertical-align:top;">:</td><td><div>False</div></td></tr><tr><td style="font-weight:bold;vertical-align:top;">is_source</td><td style="vertical-align:top;">:</td><td><div>True</div></td></tr><tr><td style="font-weight:bold;vertical-align:top;">local_hosts</td><td style="vertical-align:top;">:</td><td><div><table><tr><td><div>tocr2-PC</div></td></tr><tr><td><div>192.168.88.196</div></td></tr><tr><td><div>::1</div></td></tr><tr><td><div>::ffff:127.0.0.1</div></td></tr><tr><td><div>127.0.0.1</div></td></tr><tr><td><div>fe80::edad:44fb:97d9:d09%11</div></td></tr></table></div></td></tr><tr><td style="font-weight:bold;vertical-align:top;">path_info</td><td style="vertical-align:top;">:</td><td><div>/tidetest/default/index2</div></td></tr><tr><td style="font-weight:bold;vertical-align:top;">query_string</td><td style="vertical-align:top;">:</td><td><div></div></td></tr><tr><td style="font-weight:bold;vertical-align:top;">remote_addr</td><td style="vertical-align:top;">:</td><td><div>127.0.0.1</div></td></tr><tr><td style="font-weight:bold;vertical-align:top;">remote_port</td><td style="vertical-align:top;">:</td><td><div>56128</div></td></tr><tr><td style="font-weight:bold;vertical-align:top;">request_method</td><td style="vertical-align:top;">:</td><td><div>GET</div></td></tr><tr><td style="font-weight:bold;vertical-align:top;">request_uri</td><td style="vertical-align:top;">:</td><td><div>/tidetest/default/index2</div></td></tr><tr><td style="font-weight:bold;vertical-align:top;">script_name</td><td style="vertical-align:top;">:</td><td><div></div></td></tr><tr><td style="font-weight:bold;vertical-align:top;">server_name</td><td style="vertical-align:top;">:</td><td><div>tocr2-PC</div></td></tr><tr><td style="font-weight:bold;vertical-align:top;">server_port</td><td style="vertical-align:top;">:</td><td><div>8001</div></td></tr><tr><td style="font-weight:bold;vertical-align:top;">server_protocol</td><td style="vertical-align:top;">:</td><td><div>HTTP/1.1</div></td></tr><tr><td style="font-weight:bold;vertical-align:top;">server_software</td><td style="vertical-align:top;">:</td><td><div>Rocket 1.2.6</div></td></tr><tr><td style="font-weight:bold;vertical-align:top;">web2py_path</td><td style="vertical-align:top;">:</td><td><div>C:\\Users\\Ata\\Desktop\\WB\\web2py</div></td></tr><tr><td style="font-weight:bold;vertical-align:top;">web2py_version</td><td style="vertical-align:top;">:</td><td><div>2.12.3-stable+timestamp.2015.08.19.00.18.03</div></td></tr><tr><td style="font-weight:bold;vertical-align:top;">wsgi.errors</td><td style="vertical-align:top;">:</td><td><div>&lt;open file &#x27;&lt;stderr&gt;&#x27;, mode &#x27;w&#x27; at 0x0048D0D0&gt;</div></td></tr><tr><td style="font-weight:bold;vertical-align:top;">wsgi.file_wrapper</td><td style="vertical-align:top;">:</td><td><div>&lt;class wsgiref.util.FileWrapper at 0x03498228&gt;</div></td></tr><tr><td style="font-weight:bold;vertical-align:top;">wsgi.input</td><td style="vertical-align:top;">:</td><td><div>&lt;socket._fileobject object at 0x03B65DB0&gt;</div></td></tr><tr><td style="font-weight:bold;vertical-align:top;">wsgi.multiprocess</td><td style="vertical-align:top;">:</td><td><div>False</div></td></tr><tr><td style="font-weight:bold;vertical-align:top;">wsgi.multithread</td><td style="vertical-align:top;">:</td><td><div>True</div></td></tr><tr><td style="font-weight:bold;vertical-align:top;">wsgi.run_once</td><td style="vertical-align:top;">:</td><td><div>False</div></td></tr><tr><td style="font-weight:bold;vertical-align:top;">wsgi.url_scheme</td><td style="vertical-align:top;">:</td><td><div>http</div></td></tr><tr><td style="font-weight:bold;vertical-align:top;">wsgi.version</td><td style="vertical-align:top;">:</td><td><div><table><tr><td><div>1</div></td></tr><tr><td><div>0</div></td></tr></table></div></td></tr><tr><td style="font-weight:bold;vertical-align:top;">wsgi_errors</td><td style="vertical-align:top;">:</td><td><div>&lt;open file &#x27;&lt;stderr&gt;&#x27;, mode &#x27;w&#x27; at 0x0048D0D0&gt;</div></td></tr><tr><td style="font-weight:bold;vertical-align:top;">wsgi_file_wrapper</td><td style="vertical-align:top;">:</td><td><div>&lt;class wsgiref.util.FileWrapper at 0x03498228&gt;</div></td></tr><tr><td style="font-weight:bold;vertical-align:top;">wsgi_input</td><td style="vertical-align:top;">:</td><td><div>&lt;socket._fileobject object at 0x03B65DB0&gt;</div></td></tr><tr><td style="font-weight:bold;vertical-align:top;">wsgi_multiprocess</td><td style="vertical-align:top;">:</td><td><div>False</div></td></tr><tr><td style="font-weight:bold;vertical-align:top;">wsgi_multithread</td><td style="vertical-align:top;">:</td><td><div>True</div></td></tr><tr><td style="font-weight:bold;vertical-align:top;">wsgi_run_once</td><td style="vertical-align:top;">:</td><td><div>False</div></td></tr><tr><td style="font-weight:bold;vertical-align:top;">wsgi_url_scheme</td><td style="vertical-align:top;">:</td><td><div>http</div></td></tr><tr><td style="font-weight:bold;vertical-align:top;">wsgi_version</td><td style="vertical-align:top;">:</td><td><div><table><tr><td><div>1</div></td></tr><tr><td><div>0</div></td></tr></table></div></td></tr></table></div></td></tr><tr><td style="font-weight:bold;vertical-align:top;">extension</td><td style="vertical-align:top;">:</td><td><div>html</div></td></tr><tr><td style="font-weight:bold;vertical-align:top;">folder</td><td style="vertical-align:top;">:</td><td><div>C:\\Users\\Ata\\Desktop\\WB\\web2py\\applications\\tidetest\\</div></td></tr><tr><td style="font-weight:bold;vertical-align:top;">function</td><td style="vertical-align:top;">:</td><td><div>index2</div></td></tr><tr><td style="font-weight:bold;vertical-align:top;">global_settings</td><td style="vertical-align:top;">:</td><td><div><table><tr><td style="font-weight:bold;vertical-align:top;">app_folders</td><td style="vertical-align:top;">:</td><td><div>set([&#x27;C:\\\\Users\\\\Ata\\\\Desktop\\\\WB\\\\web2py\\\\applications\\\\admin\\\\&#x27;, &#x27;C:\\\\Users\\\\Ata\\\\Desktop\\\\WB\\\\web2py\\\\applications\\\\welcome\\\\&#x27;, &#x27;C:\\\\Users\\\\Ata\\\\Desktop\\\\WB\\\\web2py\\\\applications\\\\examples\\\\&#x27;, &#x27;C:\\\\Users\\\\Ata\\\\Desktop\\\\WB\\\\web2py\\\\applications\\\\tidetest\\\\&#x27;])</div></td></tr><tr><td style="font-weight:bold;vertical-align:top;">applications_parent</td><td style="vertical-align:top;">:</td><td><div>C:\\Users\\Ata\\Desktop\\WB\\web2py</div></td></tr><tr><td style="font-weight:bold;vertical-align:top;">cmd_args</td><td style="vertical-align:top;">:</td><td><div><table></table></div></td></tr><tr><td style="font-weight:bold;vertical-align:top;">cmd_options</td><td style="vertical-align:top;">:</td><td><div>&lt;Values at 0x33f3b70: {&#x27;verbose&#x27;: False, &#x27;ip&#x27;: &#x27;127.0.0.1&#x27;, &#x27;debuglevel&#x27;: 30, &#x27;with_scheduler&#x27;: False, &#x27;ips&#x27;: [&#x27;192.168.88.196&#x27;, &#x27;fe80::edad:44fb:97d9:d09%11&#x27;], &#x27;shutdown_timeout&#x27;: 5, &#x27;taskbar&#x27;: False, &#x27;with_coverage&#x27;: False, &#x27;scheduler_groups&#x27;: None, &#x27;port&#x27;: 8000, &#x27;maxthreads&#x27;: None, &#x27;softcron&#x27;: False, &#x27;server_name&#x27;: &#x27;tocr2-PC&#x27;, &#x27;bpython&#x27;: False, &#x27;nogui&#x27;: False, &#x27;pid_filename&#x27;: &#x27;httpserver.pid&#x27;, &#x27;print_errors&#x27;: False, &#x27;extcron&#x27;: False, &#x27;runcron&#x27;: False, &#x27;run_system_tests&#x27;: False, &#x27;test&#x27;: None, &#x27;folder&#x27;: &#x27;C:\\\\Users\\\\Ata\\\\Desktop\\\\WB\\\\web2py&#x27;, &#x27;config&#x27;: &#x27;&#x27;, &#x27;minthreads&#x27;: None, &#x27;shell&#x27;: None, &#x27;run&#x27;: &#x27;&#x27;, &#x27;log_filename&#x27;: &#x27;httpserver.log&#x27;, &#x27;profiler_dir&#x27;: None, &#x27;args&#x27;: [&#x27;&#x27;], &#x27;socket_timeout&#x27;: 5, &#x27;ssl_ca_certificate&#x27;: None, &#x27;scheduler&#x27;: None, &#x27;interfaces&#x27;: None, &#x27;ssl_private_key&#x27;: &#x27;&#x27;, &#x27;gae&#x27;: None, &#x27;password&#x27;: &#x27;&lt;ask&gt;&#x27;, &#x27;request_queue_size&#x27;: 5, &#x27;ssl_certificate&#x27;: &#x27;&#x27;, &#x27;cronjob&#x27;: False, &#x27;numthreads&#x27;: None, &#x27;quiet&#x27;: False, &#x27;import_models&#x27;: False, &#x27;timeout&#x27;: 10, &#x27;plain&#x27;: False, &#x27;nobanner&#x27;: False}&gt;</div></td></tr><tr><td style="font-weight:bold;vertical-align:top;">db_sessions</td><td style="vertical-align:top;">:</td><td><div>set([])</div></td></tr><tr><td style="font-weight:bold;vertical-align:top;">debugging</td><td style="vertical-align:top;">:</td><td><div>True</div></td></tr><tr><td style="font-weight:bold;vertical-align:top;">gluon_parent</td><td style="vertical-align:top;">:</td><td><div>C:\\Users\\Ata\\Desktop\\WB\\web2py</div></td></tr><tr><td style="font-weight:bold;vertical-align:top;">is_jython</td><td style="vertical-align:top;">:</td><td><div>False</div></td></tr><tr><td style="font-weight:bold;vertical-align:top;">is_pypy</td><td style="vertical-align:top;">:</td><td><div>False</div></td></tr><tr><td style="font-weight:bold;vertical-align:top;">is_source</td><td style="vertical-align:top;">:</td><td><div>True</div></td></tr><tr><td style="font-weight:bold;vertical-align:top;">local_hosts</td><td style="vertical-align:top;">:</td><td><div><table><tr><td><div>tocr2-PC</div></td></tr><tr><td><div>192.168.88.196</div></td></tr><tr><td><div>::1</div></td></tr><tr><td><div>::ffff:127.0.0.1</div></td></tr><tr><td><div>127.0.0.1</div></td></tr><tr><td><div>fe80::edad:44fb:97d9:d09%11</div></td></tr></table></div></td></tr><tr><td style="font-weight:bold;vertical-align:top;">web2py_version</td><td style="vertical-align:top;">:</td><td><div>2.12.3-stable+timestamp.2015.08.19.00.18.03</div></td></tr></table></div></td></tr><tr><td style="font-weight:bold;vertical-align:top;">is_https</td><td style="vertical-align:top;">:</td><td><div>False</div></td></tr><tr><td style="font-weight:bold;vertical-align:top;">is_local</td><td style="vertical-align:top;">:</td><td><div>True</div></td></tr><tr><td style="font-weight:bold;vertical-align:top;">is_restful</td><td style="vertical-align:top;">:</td><td><div>False</div></td></tr><tr><td style="font-weight:bold;vertical-align:top;">is_sheduler</td><td style="vertical-align:top;">:</td><td><div>None</div></td></tr><tr><td style="font-weight:bold;vertical-align:top;">is_shell</td><td style="vertical-align:top;">:</td><td><div>None</div></td></tr><tr><td style="font-weight:bold;vertical-align:top;">now</td><td style="vertical-align:top;">:</td><td><div>datetime.datetime(2015, 12, 2, 17, 10, 3, 361000)</div></td></tr><tr><td style="font-weight:bold;vertical-align:top;">raw_args</td><td style="vertical-align:top;">:</td><td><div></div></td></tr><tr><td style="font-weight:bold;vertical-align:top;">raw_extension</td><td style="vertical-align:top;">:</td><td><div>None</div></td></tr><tr><td style="font-weight:bold;vertical-align:top;">url</td><td style="vertical-align:top;">:</td><td><div>/tidetest/default/index2</div></td></tr><tr><td style="font-weight:bold;vertical-align:top;">utcnow</td><td style="vertical-align:top;">:</td><td><div>datetime.datetime(2015, 12, 3, 1, 10, 3, 362000)</div></td></tr><tr><td style="font-weight:bold;vertical-align:top;">wsgi</td><td style="vertical-align:top;">:</td><td><div>&lt;gluon.main.LazyWSGI object at 0x09A264B0&gt;</div></td></tr></table></div>'
tRp58
sS'frames'
p59
(lp60
(dp61
S'file'
p62
S'C:\\Users\\Ata\\Desktop\\WB\\web2py\\gluon\\restricted.py'
p63
sS'dump'
p64
(dp65
S'environment'
p66
S"{'A': <class 'gluon.html.A'>, 'ANY_OF': <class 'gluon.validators.ANY_OF'>, 'ASSIGNJS': <function ASSIGNJS>, 'AppConfig': <function AppConfig>, 'Auth': <class 'gluon.tools.Auth'>, 'B': <class 'gluon.html.B'>, 'BEAUTIFY': <class 'gluon.html.BEAUTIFY'>, 'BODY': <class 'gluon.html.BODY'>, 'BR': <class 'gluon.html.BR'>, 'BUTTON': <class 'gluon.html.BUTTON'>, ...}"
p67
sS'ccode'
p68
S'<code object <module> at 09A12578, file "C:\\User...ions\\tidetest\\views\\default/index2.html", line 1>'
p69
ssS'lnum'
p70
I227
sS'lines'
p71
(dp72
I224
S'            ccode = code'
p73
sI225
S'        else:'
p74
sI226
S'            ccode = compile2(code, layer)'
p75
sI227
S'        exec ccode in environment'
p76
sI228
S'    except HTTP:'
p77
sI229
S'        raise'
p78
sI230
S'    except RestrictedError:'
p79
sI231
S'        # do not encapsulate (obfuscate) the original RestrictedError'
p80
sI222
S'    try:'
p81
sI223
S'        if isinstance(code, types.CodeType):'
p82
ssS'call'
p83
S'(code=r"response.write(\'<!DOCTYPE html>\\r\\n<html>\\r\\n   ...script>\\r\\n    </body>\\r\\n</html>\', escape=False)", environment={\'A\': <class \'gluon.html.A\'>, \'ANY_OF\': <class \'gluon.validators.ANY_OF\'>, \'ASSIGNJS\': <function ASSIGNJS>, \'AppConfig\': <function AppConfig>, \'Auth\': <class \'gluon.tools.Auth\'>, \'B\': <class \'gluon.html.B\'>, \'BEAUTIFY\': <class \'gluon.html.BEAUTIFY\'>, \'BODY\': <class \'gluon.html.BODY\'>, \'BR\': <class \'gluon.html.BR\'>, \'BUTTON\': <class \'gluon.html.BUTTON\'>, ...}, layer=r\'C:\\Users\\Ata\\Desktop\\WB\\web2py\\applications\\tidetest\\views\\default/index2.html\')'
p84
sS'func'
p85
S'restricted'
p86
sa(dp87
g62
S'C:\\Users\\Ata\\Desktop\\WB\\web2py\\applications\\tidetest\\views\\default\\index2.html'
p88
sg64
(dp89
S'endif'
p90
S'undefined'
p91
ssg70
I18
sg71
(dp92
I9
S'response.write(\'"/>\\r\\n        <!-- HTML5 shim, for IE6-8 support of HTML5 elements. All other JS at the end of file. -->         \\r\\n        <!--[if lt IE 9]>\\r\\n      <script src="\', escape=False)'
p93
sI10
S"response.write(URL('static','extra/js/html5shiv.js'))"
p94
sI11
S'response.write(\'"></script>\\r\\n      <script src="\', escape=False)'
p95
sI12
S"response.write(URL('static','extra/js/respond.min.js'))"
p96
sI13
S'response.write(\'"></script>\\r\\n    <![endif]-->         \\r\\n        <!--headerIncludes-->         \\r\\n        <style type="text/css">\\r\\n            .paragraph-logo\\r\\n            {\\r\\n            font-size: 25px;\\r\\n            }\\r\\n\\r\\n</style>\\r\\n    </head>     \\r\\n    <body class="width-percent-100">\\r\\n        <div id="page" class="page backgrounding width-percent-100"> \\r\\n            <header class="item header margin-top-0  backgrounding width-percent-100" id="header9">\\r\\n                <div class="wrapper  header-transparent"> \\r\\n                    <div class="container">\\r\\n                        <nav role="navigation" class="navbar plain margin-top-20" style="display: block;"> \\r\\n                            <div class="navbar-header"> \\r\\n                                <button data-target="#navbar-collapse-02" data-toggle="collapse" class="navbar-toggle" type="button"> \\r\\n                                    <span class="sr-only">Toggle navigation</span> \\r\\n                                </button>                                 \\r\\n                                <a href="#" class="navbar-brand" style="line-height: 60px; padding-left: 0px;">\\r\\n                                    <img alt="" src="images/icons/brush.svg" style="height: 60px;">                                                                                                                                                                                                                                                                                                                                                                                                                                                                                                                                                                                                                                                                                                                                                                                                                                                                                                                                                                                                                                                                                                                                                                                                                                                                                                                                                                                                                                                                                                                                                                                                                                                                                                                                                                                                                                                                                                                                                                                                                                                                                                                                                                                                                                                                                                                                                                                                                                                                                                                                                                                                                                                                                                                                                                                                                                                                                                                                                                                                                                                                                                                                                                                                                                                                                                                                                                                                                                                                                                                                                                                                                                                                                                                                                                                                                                                                                                                                                                                                                                                                                                                                                                                                                                                                                                                                                                                                                                                                                                                                                                                                                                                                                                                                                                                                                                                                                                                                                     TideNow\\r\\n                                </a>                                 \\r\\n                            </div>                             \\r\\n                            <div id="navbar-collapse-02" class="collapse navbar-collapse"> \\r\\n                                <ul class="nav navbar-nav navbar-right"> \\r\\n                                    <li class="active propClone">\\r\\n                                        <a href="#">Home</a>\\r\\n                                    </li>                                     \\r\\n                                    <li class="propClone">\\r\\n                                        <a href="#">Contact</a>\\r\\n                                    </li>                                     \\r\\n                                </ul>                                 \\r\\n                            </div>\\r\\n                            <p style="display: block;" class="paragraph-logo">Get instant deals on select local restaurants.</p>\\r\\n                            <!-- /.navbar-collapse -->                             \\r\\n                        </nav>                         \\r\\n                        <!-- /.row -->\\r\\n                    </div>\\r\\n                    <!-- /.container -->                     \\r\\n                </div>\\r\\n                <img src="\', escape=False)'
p97
sI14
S"response.write(URL('static','extra/static/header.jpg'))"
p98
sI15
S'response.write(\'" class="background-fixed" />\\r\\n                <!-- /.wrapper -->                 \\r\\n            </header>\\r\\n            <!-- /.item -->\\r\\n            <!-- Start Footer 1-4 -->             \\r\\n            <!--// END Footer 1-4 -->\\r\\n            <div class="item portfolio" id="portfolio2"> \\r\\n                <div class="container"> \\r\\n                    <!-- /.row -->\\r\\n                    \', escape=False)'
p99
sI16
S'for i in range(3):'
p100
sI17
S'    response.write(\'\\r\\n                    <div class="row margin-bottom-20">\\r\\n                        <div class="col-md-3 col-sm-6 col-xs-6"> \\r\\n                            <a href="" class="over img-rounded"> \\r\\n                                <img src="static/logos/cafe_baklava_logo.png" class="width-100" alt="" id="testImage">\\r\\n                                <div class="">\\r\\n                                    <p class="client-name" style="display: block;">Cafe Baklava \', escape=False)'
p101
sI18
S'    allRest[0].name'
p102
sI19
S'    response.write(\'</p>\\r\\n                                    <p class="client-details" style="display: block;">Mediterranean Grill<br></p>\\r\\n                                    <p class="client-description" style="display: block;"><span id="time" class="time-to-the-left">10:43</span> Left for 43% Off</p>\\r\\n                                </div>                                 \\r\\n                            </a>                             \\r\\n                        </div>\\r\\n                        <!-- /.col-md-3 col -->                         \\r\\n                        <div class="col-md-3 col-sm-6 col-xs-6"> \\r\\n                            <a href="" class="over img-rounded"> \\r\\n                                <img src="static/logos/ephesus_logo.png" class="width-100" alt="">\\r\\n                                <div class="">\\r\\n                                    <p class="client-name" style="display: block;">Ephesus</p>\\r\\n                                    <p class="client-details" style="display: block;">Turkish and Greek<br></p>\\r\\n                                    <p class="client-description" style="display: block;"><span id="time"></span>31% Off</p>\\r\\n                                </div>                                 \\r\\n                            </a>                             \\r\\n                        </div>\\r\\n                        <!-- /.col-md-3 col -->                         \\r\\n                        <div class="col-md-3 col-sm-6 col-xs-6"> \\r\\n                            <a href="" class="over propClone img-rounded"> \\r\\n                                <img src="static/logos/evvia.png" class="width-100" alt="">\\r\\n                                <div class="">\\r\\n                                    <p class="client-name" style="display: block;">Evvia</p>\\r\\n                                    <p class="client-details" style="display: block;">Greek</p>\\r\\n                                    <p class="client-description" style="display: block;">12% Off</p>\\r\\n                                </div>                                 \\r\\n                            </a>                             \\r\\n                        </div>\\r\\n                        <!-- /.col-md-3 col -->                         \\r\\n                        <div class="col-md-3 col-sm-6 col-xs-6"> \\r\\n                            <a href="" class="over img-rounded"> \\r\\n                                <img src="static/logos/galata_logo.png" class="width-100 client-picture" alt="">\\r\\n                                <div class="">\\r\\n                                    <p class="client-name" style="display: block;">Galata Bistro</p>\\r\\n                                    <p class="client-details" style="display: block;">Mediterranean<br></p>\\r\\n                                    <p class="client-description" style="display: block;">26% Off</p>\\r\\n                                </div>                                 \\r\\n                            </a>                             \\r\\n                        </div>\\r\\n                        <!-- /.col-md-3 col -->\\r\\n\\r\\n                    </div>\\r\\n                    \', escape=False)'
p103
sI20
S'    pass'
p104
sI21
S'response.write(\'\\r\\n                    <!-- /.row -->                     \\r\\n                    <div class="row margin-bottom-20"> \\r\\n                        <div class="col-md-3 col-sm-6 col-xs-6">\\r\\n                            <a href="" class="over img-rounded"> \\r\\n                                <img src="static/logos/olympus_logo.png" class="width-100" alt="">\\r\\n                                <div class="">\\r\\n                                    <p class="client-name" style="display: block;">Olympus Cafe</p>\\r\\n                                    <p class="client-details" style="display: block;">Bakery, Breakfast &amp; Lunch<br></p>\\r\\n                                    <p class="client-description" style="display: block;">17% Off</p>\\r\\n                                </div>                                 \\r\\n                            </a>                             \\r\\n                        </div>\\r\\n                        <!-- /.col-md-3 col -->                         \\r\\n                        <div class="col-md-3 col-sm-6 col-xs-6"> \\r\\n                            <a href="" class="over img-rounded"> \\r\\n                                <img src="static/logos/shana.png" class="width-100" alt="">\\r\\n                                <div class="">\\r\\n                                    <p class="client-name" style="display: block;">Shana Thai</p>\\r\\n                                    <p class="client-details" style="display: block;">Thai<br></p>\\r\\n                                    <p class="client-description" style="display: block;">49% Off</p>\\r\\n                                </div>                                 \\r\\n                            </a>                             \\r\\n                        </div>\\r\\n                        <!-- /.col-md-3 col -->                         \\r\\n                        <div class="col-md-3 col-sm-6 col-xs-6"> \\r\\n                            <a href="" class="over img-rounded"> \\r\\n                                <img src="static/logos/tamarine.png" class="width-100" alt="">\\r\\n                                <div class="">\\r\\n                                    <p class="client-name" style="display: block;">Tamarine</p>\\r\\n                                    <p class="client-details" style="display: block;">Vietnamese<br></p>\\r\\n                                    <p class="client-description" style="display: block;">14% Off</p>\\r\\n                                </div>                                 \\r\\n                            </a>                             \\r\\n                        </div>\\r\\n                        <!-- /.col-md-3 col -->                         \\r\\n                        <div class="col-md-3 col-sm-6 col-xs-6"> \\r\\n                            <a href="" class="over img-rounded"> \\r\\n                                <img src="static/logos/joya.png" class="width-100" alt="">\\r\\n                                <div class="">\\r\\n                                    <p class="client-name" style="display: block;">Joya</p>\\r\\n                                    <p class="client-details" style="display: block;">Latin American, Tapas Bar<br></p>\\r\\n                                    <p class="client-description" style="display: block;">36% Off</p>\\r\\n                                </div>                                 \\r\\n                            </a>                             \\r\\n                        </div>\\r\\n                        <!-- /.col-md-3 col -->                         \\r\\n                    </div>\\r\\n                    <!-- /.row -->                     \\r\\n                </div>\\r\\n                <!-- /.container -->                 \\r\\n            </div>\\r\\n            <!-- /.item -->\\r\\n            <!-- Start Content Block 1-6 -->             \\r\\n            <!-- // End Content Block 1-6 -->\\r\\n            <!-- Start Footer Copyright Bar -->             \\r\\n            <!--// END Footer Copyright Bar -->\\r\\n        </div>\\r\\n        <div class="copyright-bar bg-black"> \\r\\n            <div class="container"> \\r\\n                <div class="editContent" style="">\\r\\n                    <p class="pull-left small"> \\r\\n\\t\\xc2\\xa9 TideNow - Elegant deals for everyone.</p>\\r\\n                </div>                 \\r\\n                <div class="editContent" style="">\\r\\n                    <p class="pull-right small"> \\r\\n\\tFrom deals to meals.</p>\\r\\n                </div>                 \\r\\n            </div>             \\r\\n        </div>         \\r\\n        <!-- /#page -->         \\r\\n        <!-- Load JS here for greater good =============================-->\\r\\n        <script>\\r\\nfunction startTimer(duration, display) {\\r\\n    var timer = duration, minutes, seconds;\\r\\n    setInterval(function () {\\r\\n        minutes = parseInt(timer / 60, 10);\\r\\n        seconds = parseInt(timer % 60, 10);\\r\\n\\r\\n        minutes = minutes < 10 ? "0" + minutes : minutes;\\r\\n        seconds = seconds < 10 ? "0" + seconds : seconds;\\r\\n\\r\\n        display.textContent = minutes + ":" + seconds;\\r\\n\\r\\n        if (--timer < 0) {\\r\\n            timer = duration;\\r\\n        }\\r\\n    }, 1000);\\r\\n}\\r\\n\\r\\nwindow.onload = function () {\\r\\n    var randomMinute = Math.floor(Math.random() * 30) + 10;\\r\\n    var randomSecond = Math.floor(Math.random() * 59);\\r\\n\\tvar fiveMinutes = randomSecond * randomMinute,\\r\\n\\tdisplay = document.querySelector(\\\'#time\\\');\\r\\n\\tstartTimer(fiveMinutes, display);\\r\\n};\\r\\n        </script>\\r\\n    </body>\\r\\n</html>\', escape=False)'
p105
ssg83
S'()'
p106
sg85
S'<module>'
p107
sa(dp108
g62
S'C:\\Users\\Ata\\Desktop\\WB\\web2py\\gluon\\packages\\dal\\pydal\\objects.py'
p109
sg64
(dp110
S'i'
S'0'
sS'self'
p111
S'<Rows (0)>'
p112
sS'self.records'
p113
S'[]'
p114
sS'row'
p115
g91
ssg70
I2507
sg71
(dp116
I2502
S'    def __getslice__(self, a, b):'
p117
sI2503
S'        return Rows(self.db, self.records[a:b], self.colnames,'
p118
sI2504
S'                    compact=self.compact)'
p119
sI2505
S''
sI2506
S'    def __getitem__(self, i):'
p120
sI2507
S'        row = self.records[i]'
p121
sI2508
S'        keys = list(row.keys())'
p122
sI2509
S"        if self.compact and len(keys) == 1 and keys[0] != '_extra':"
p123
sI2510
S'            return row[keys[0]]'
p124
sI2511
S'        return row'
p125
ssg83
S'(self=<Rows (0)>, i=0)'
p126
sg85
g20
sasS'pyver'
p127
S'Python 2.7.10: C:\\Python27\\python.exe (prefix: C:\\Python27)'
p128
sS'session'
p129
g57
(S's\x1a\x00\x00\x00<div><table></table></div>'
tRp130
sS'etype'
p131
S"<type 'exceptions.IndexError'>"
p132
sS'date'
p133
S'Wed Dec 02 17:10:03 2015'
p134
sS'response'
p135
g57
(S'sg>\x00\x00<div><table><tr><td style="font-weight:bold;vertical-align:top;">body</td><td style="vertical-align:top;">:</td><td><div>&lt;cStringIO.StringO object at 0x0A3272E0&gt;</div></td></tr><tr><td style="font-weight:bold;vertical-align:top;">cookies</td><td style="vertical-align:top;">:</td><td><div><table><tr><td style="font-weight:bold;vertical-align:top;">session_id_tidetest</td><td style="vertical-align:top;">:</td><td><div>127.0.0.1-35a449ab-b5f0-48af-ac3b-1afce57422e5<table><tr><td style="font-weight:bold;vertical-align:top;">comment</td><td style="vertical-align:top;">:</td><td><div></div></td></tr><tr><td style="font-weight:bold;vertical-align:top;">domain</td><td style="vertical-align:top;">:</td><td><div></div></td></tr><tr><td style="font-weight:bold;vertical-align:top;">expires</td><td style="vertical-align:top;">:</td><td><div></div></td></tr><tr><td style="font-weight:bold;vertical-align:top;">httponly</td><td style="vertical-align:top;">:</td><td><div></div></td></tr><tr><td style="font-weight:bold;vertical-align:top;">max-age</td><td style="vertical-align:top;">:</td><td><div></div></td></tr><tr><td style="font-weight:bold;vertical-align:top;">path</td><td style="vertical-align:top;">:</td><td><div>/</div></td></tr><tr><td style="font-weight:bold;vertical-align:top;">secure</td><td style="vertical-align:top;">:</td><td><div></div></td></tr><tr><td style="font-weight:bold;vertical-align:top;">version</td><td style="vertical-align:top;">:</td><td><div></div></td></tr></table></div></td></tr></table></div></td></tr><tr><td style="font-weight:bold;vertical-align:top;">delimiters</td><td style="vertical-align:top;">:</td><td><div><table><tr><td><div>{{</div></td></tr><tr><td><div>}}</div></td></tr></table></div></td></tr><tr><td style="font-weight:bold;vertical-align:top;">files</td><td style="vertical-align:top;">:</td><td><div><table></table></div></td></tr><tr><td style="font-weight:bold;vertical-align:top;">flash</td><td style="vertical-align:top;">:</td><td><div></div></td></tr><tr><td style="font-weight:bold;vertical-align:top;">form_label_separator</td><td style="vertical-align:top;">:</td><td><div></div></td></tr><tr><td style="font-weight:bold;vertical-align:top;">formstyle</td><td style="vertical-align:top;">:</td><td><div>bootstrap3_inline</div></td></tr><tr><td style="font-weight:bold;vertical-align:top;">generic_patterns</td><td style="vertical-align:top;">:</td><td><div><table><tr><td><div>*</div></td></tr></table></div></td></tr><tr><td style="font-weight:bold;vertical-align:top;">google_analytics_id</td><td style="vertical-align:top;">:</td><td><div>None</div></td></tr><tr><td style="font-weight:bold;vertical-align:top;">headers</td><td style="vertical-align:top;">:</td><td><div><table><tr><td style="font-weight:bold;vertical-align:top;">X-Powered-By</td><td style="vertical-align:top;">:</td><td><div>web2py</div></td></tr></table></div></td></tr><tr><td style="font-weight:bold;vertical-align:top;">logo</td><td style="vertical-align:top;">:</td><td><div><a class="navbar-brand" href="http://www.web2py.com/" id="web2py-logo"><b>web<span>2</span>py</b>&trade;&nbsp;</a></div></td></tr><tr><td style="font-weight:bold;vertical-align:top;">menu</td><td style="vertical-align:top;">:</td><td><div><table><tr><td><div><table><tr><td><div>Home</div></td></tr><tr><td><div>False</div></td></tr><tr><td><div>/tidetest/default/index</div></td></tr><tr><td><div><table></table></div></td></tr></table></div></td></tr><tr><td><div><table><tr><td><div>My Sites</div></td></tr><tr><td><div>False</div></td></tr><tr><td><div>/admin/default/site</div></td></tr></table></div></td></tr><tr><td><div><table><tr><td><div>This App</div></td></tr><tr><td><div>False</div></td></tr><tr><td><div>#</div></td></tr><tr><td><div><table><tr><td><div><table><tr><td><div>Design</div></td></tr><tr><td><div>False</div></td></tr><tr><td><div>/admin/default/design/tidetest</div></td></tr></table></div></td></tr><tr><td><div><li class="divider"></li></div></td></tr><tr><td><div><table><tr><td><div>Controller</div></td></tr><tr><td><div>False</div></td></tr><tr><td><div>/admin/default/edit/tidetest/controllers/default.py</div></td></tr></table></div></td></tr><tr><td><div><table><tr><td><div>View</div></td></tr><tr><td><div>False</div></td></tr><tr><td><div>/admin/default/edit/tidetest/views/default/index2.html</div></td></tr></table></div></td></tr><tr><td><div><table><tr><td><div>DB Model</div></td></tr><tr><td><div>False</div></td></tr><tr><td><div>/admin/default/edit/tidetest/models/db.py</div></td></tr></table></div></td></tr><tr><td><div><table><tr><td><div>Menu Model</div></td></tr><tr><td><div>False</div></td></tr><tr><td><div>/admin/default/edit/tidetest/models/menu.py</div></td></tr></table></div></td></tr><tr><td><div><table><tr><td><div>Config.ini</div></td></tr><tr><td><div>False</div></td></tr><tr><td><div>/admin/default/edit/tidetest/private/appconfig.ini</div></td></tr></table></div></td></tr><tr><td><div><table><tr><td><div>Layout</div></td></tr><tr><td><div>False</div></td></tr><tr><td><div>/admin/default/edit/tidetest/views/layout.html</div></td></tr></table></div></td></tr><tr><td><div><table><tr><td><div>Stylesheet</div></td></tr><tr><td><div>False</div></td></tr><tr><td><div>/admin/default/edit/tidetest/static/css/web2py-bootstrap3.css</div></td></tr></table></div></td></tr><tr><td><div><table><tr><td><div>Database</div></td></tr><tr><td><div>False</div></td></tr><tr><td><div>/tidetest/appadmin/index</div></td></tr></table></div></td></tr><tr><td><div><table><tr><td><div>Errors</div></td></tr><tr><td><div>False</div></td></tr><tr><td><div>/admin/default/errors/tidetest</div></td></tr></table></div></td></tr><tr><td><div><table><tr><td><div>About</div></td></tr><tr><td><div>False</div></td></tr><tr><td><div>/admin/default/about/tidetest</div></td></tr></table></div></td></tr></table></div></td></tr></table></div></td></tr><tr><td><div><table><tr><td><div>web2py.com</div></td></tr><tr><td><div>False</div></td></tr><tr><td><div>#</div></td></tr><tr><td><div><table><tr><td><div><table><tr><td><div>Download</div></td></tr><tr><td><div>False</div></td></tr><tr><td><div>http://www.web2py.com/examples/default/download</div></td></tr></table></div></td></tr><tr><td><div><table><tr><td><div>Support</div></td></tr><tr><td><div>False</div></td></tr><tr><td><div>http://www.web2py.com/examples/default/support</div></td></tr></table></div></td></tr><tr><td><div><table><tr><td><div>Demo</div></td></tr><tr><td><div>False</div></td></tr><tr><td><div>http://web2py.com/demo_admin</div></td></tr></table></div></td></tr><tr><td><div><table><tr><td><div>Quick Examples</div></td></tr><tr><td><div>False</div></td></tr><tr><td><div>http://web2py.com/examples/default/examples</div></td></tr></table></div></td></tr><tr><td><div><table><tr><td><div>FAQ</div></td></tr><tr><td><div>False</div></td></tr><tr><td><div>http://web2py.com/AlterEgo</div></td></tr></table></div></td></tr><tr><td><div><table><tr><td><div>Videos</div></td></tr><tr><td><div>False</div></td></tr><tr><td><div>http://www.web2py.com/examples/default/videos/</div></td></tr></table></div></td></tr><tr><td><div><table><tr><td><div>Free Applications</div></td></tr><tr><td><div>False</div></td></tr><tr><td><div>http://web2py.com/appliances</div></td></tr></table></div></td></tr><tr><td><div><table><tr><td><div>Plugins</div></td></tr><tr><td><div>False</div></td></tr><tr><td><div>http://web2py.com/plugins</div></td></tr></table></div></td></tr><tr><td><div><table><tr><td><div>Recipes</div></td></tr><tr><td><div>False</div></td></tr><tr><td><div>http://web2pyslices.com/</div></td></tr></table></div></td></tr></table></div></td></tr></table></div></td></tr><tr><td><div><table><tr><td><div>Documentation</div></td></tr><tr><td><div>False</div></td></tr><tr><td><div>#</div></td></tr><tr><td><div><table><tr><td><div><table><tr><td><div>Online book</div></td></tr><tr><td><div>False</div></td></tr><tr><td><div>http://www.web2py.com/book</div></td></tr></table></div></td></tr><tr><td><div><li class="divider"></li></div></td></tr><tr><td><div><table><tr><td><div>Preface</div></td></tr><tr><td><div>False</div></td></tr><tr><td><div>http://www.web2py.com/book/default/chapter/00</div></td></tr></table></div></td></tr><tr><td><div><table><tr><td><div>Introduction</div></td></tr><tr><td><div>False</div></td></tr><tr><td><div>http://www.web2py.com/book/default/chapter/01</div></td></tr></table></div></td></tr><tr><td><div><table><tr><td><div>Python</div></td></tr><tr><td><div>False</div></td></tr><tr><td><div>http://www.web2py.com/book/default/chapter/02</div></td></tr></table></div></td></tr><tr><td><div><table><tr><td><div>Overview</div></td></tr><tr><td><div>False</div></td></tr><tr><td><div>http://www.web2py.com/book/default/chapter/03</div></td></tr></table></div></td></tr><tr><td><div><table><tr><td><div>The Core</div></td></tr><tr><td><div>False</div></td></tr><tr><td><div>http://www.web2py.com/book/default/chapter/04</div></td></tr></table></div></td></tr><tr><td><div><table><tr><td><div>The Views</div></td></tr><tr><td><div>False</div></td></tr><tr><td><div>http://www.web2py.com/book/default/chapter/05</div></td></tr></table></div></td></tr><tr><td><div><table><tr><td><div>Database</div></td></tr><tr><td><div>False</div></td></tr><tr><td><div>http://www.web2py.com/book/default/chapter/06</div></td></tr></table></div></td></tr><tr><td><div><table><tr><td><div>Forms and Validators</div></td></tr><tr><td><div>False</div></td></tr><tr><td><div>http://www.web2py.com/book/default/chapter/07</div></td></tr></table></div></td></tr><tr><td><div><table><tr><td><div>Email and SMS</div></td></tr><tr><td><div>False</div></td></tr><tr><td><div>http://www.web2py.com/book/default/chapter/08</div></td></tr></table></div></td></tr><tr><td><div><table><tr><td><div>Access Control</div></td></tr><tr><td><div>False</div></td></tr><tr><td><div>http://www.web2py.com/book/default/chapter/09</div></td></tr></table></div></td></tr><tr><td><div><table><tr><td><div>Services</div></td></tr><tr><td><div>False</div></td></tr><tr><td><div>http://www.web2py.com/book/default/chapter/10</div></td></tr></table></div></td></tr><tr><td><div><table><tr><td><div>Ajax Recipes</div></td></tr><tr><td><div>False</div></td></tr><tr><td><div>http://www.web2py.com/book/default/chapter/11</div></td></tr></table></div></td></tr><tr><td><div><table><tr><td><div>Components and Plugins</div></td></tr><tr><td><div>False</div></td></tr><tr><td><div>http://www.web2py.com/book/default/chapter/12</div></td></tr></table></div></td></tr><tr><td><div><table><tr><td><div>Deployment Recipes</div></td></tr><tr><td><div>False</div></td></tr><tr><td><div>http://www.web2py.com/book/default/chapter/13</div></td></tr></table></div></td></tr><tr><td><div><table><tr><td><div>Other Recipes</div></td></tr><tr><td><div>False</div></td></tr><tr><td><div>http://www.web2py.com/book/default/chapter/14</div></td></tr></table></div></td></tr><tr><td><div><table><tr><td><div>Helping web2py</div></td></tr><tr><td><div>False</div></td></tr><tr><td><div>http://www.web2py.com/book/default/chapter/15</div></td></tr></table></div></td></tr><tr><td><div><table><tr><td><div>Buy web2py\'s book</div></td></tr><tr><td><div>False</div></td></tr><tr><td><div>http://stores.lulu.com/web2py</div></td></tr></table></div></td></tr></table></div></td></tr></table></div></td></tr><tr><td><div><table><tr><td><div>Community</div></td></tr><tr><td><div>False</div></td></tr><tr><td><div>None</div></td></tr><tr><td><div><table><tr><td><div><table><tr><td><div>Groups</div></td></tr><tr><td><div>False</div></td></tr><tr><td><div>http://www.web2py.com/examples/default/usergroups</div></td></tr></table></div></td></tr><tr><td><div><table><tr><td><div>Twitter</div></td></tr><tr><td><div>False</div></td></tr><tr><td><div>http://twitter.com/web2py</div></td></tr></table></div></td></tr><tr><td><div><table><tr><td><div>Live Chat</div></td></tr><tr><td><div>False</div></td></tr><tr><td><div>http://webchat.freenode.net/?channels=web2py</div></td></tr></table></div></td></tr></table></div></td></tr></table></div></td></tr></table></div></td></tr><tr><td style="font-weight:bold;vertical-align:top;">meta</td><td style="vertical-align:top;">:</td><td><div><table><tr><td style="font-weight:bold;vertical-align:top;">author</td><td style="vertical-align:top;">:</td><td><div>Your Name &lt;you@example.com&gt;</div></td></tr><tr><td style="font-weight:bold;vertical-align:top;">description</td><td style="vertical-align:top;">:</td><td><div>a cool new app</div></td></tr><tr><td style="font-weight:bold;vertical-align:top;">generator</td><td style="vertical-align:top;">:</td><td><div>Web2py Web Framework</div></td></tr><tr><td style="font-weight:bold;vertical-align:top;">keywords</td><td style="vertical-align:top;">:</td><td><div>web2py, python, framework</div></td></tr></table></div></td></tr><tr><td style="font-weight:bold;vertical-align:top;">models_to_run</td><td style="vertical-align:top;">:</td><td><div><table><tr><td><div>^\\w+\\.py$</div></td></tr><tr><td><div>^default/\\w+\\.py$</div></td></tr><tr><td><div>^default/index2/\\w+\\.py$</div></td></tr></table></div></td></tr><tr><td style="font-weight:bold;vertical-align:top;">postprocessing</td><td style="vertical-align:top;">:</td><td><div><table></table></div></td></tr><tr><td style="font-weight:bold;vertical-align:top;">session_client</td><td style="vertical-align:top;">:</td><td><div>127.0.0.1</div></td></tr><tr><td style="font-weight:bold;vertical-align:top;">session_cookie_compression_level</td><td style="vertical-align:top;">:</td><td><div>None</div></td></tr><tr><td style="font-weight:bold;vertical-align:top;">session_cookie_expires</td><td style="vertical-align:top;">:</td><td><div>None</div></td></tr><tr><td style="font-weight:bold;vertical-align:top;">session_cookie_key</td><td style="vertical-align:top;">:</td><td><div>None</div></td></tr><tr><td style="font-weight:bold;vertical-align:top;">session_data_name</td><td style="vertical-align:top;">:</td><td><div>session_data_tidetest</div></td></tr><tr><td style="font-weight:bold;vertical-align:top;">session_file</td><td style="vertical-align:top;">:</td><td><div>None</div></td></tr><tr><td style="font-weight:bold;vertical-align:top;">session_filename</td><td style="vertical-align:top;">:</td><td><div>C:\\Users\\Ata\\Desktop\\WB\\web2py\\applications\\tidetest\\sessions\\127.0.0.1-35a449ab-b5f0-48af-ac3b-1afce57422e5</div></td></tr><tr><td style="font-weight:bold;vertical-align:top;">session_hash</td><td style="vertical-align:top;">:</td><td><div>c0762cbf4baf7f9af97c051e7fcb8083</div></td></tr><tr><td style="font-weight:bold;vertical-align:top;">session_id</td><td style="vertical-align:top;">:</td><td><div>127.0.0.1-35a449ab-b5f0-48af-ac3b-1afce57422e5</div></td></tr><tr><td style="font-weight:bold;vertical-align:top;">session_id_name</td><td style="vertical-align:top;">:</td><td><div>session_id_tidetest</div></td></tr><tr><td style="font-weight:bold;vertical-align:top;">session_masterapp</td><td style="vertical-align:top;">:</td><td><div>tidetest</div></td></tr><tr><td style="font-weight:bold;vertical-align:top;">session_new</td><td style="vertical-align:top;">:</td><td><div>True</div></td></tr><tr><td style="font-weight:bold;vertical-align:top;">session_storage_type</td><td style="vertical-align:top;">:</td><td><div>file</div></td></tr><tr><td style="font-weight:bold;vertical-align:top;">status</td><td style="vertical-align:top;">:</td><td><div>200</div></td></tr><tr><td style="font-weight:bold;vertical-align:top;">subtitle</td><td style="vertical-align:top;">:</td><td><div></div></td></tr><tr><td style="font-weight:bold;vertical-align:top;">title</td><td style="vertical-align:top;">:</td><td><div>Tidetest</div></td></tr><tr><td style="font-weight:bold;vertical-align:top;">view</td><td style="vertical-align:top;">:</td><td><div>default/index2.html</div></td></tr></table></div>'
tRp136
sS'locals'
p137
(dp138
S'i'
S'0'
sS'self'
p139
S'<Rows (0)>'
p140
sssS'traceback'
p141
S'Traceback (most recent call last):\n  File "C:\\Users\\Ata\\Desktop\\WB\\web2py\\gluon\\restricted.py", line 227, in restricted\n    exec ccode in environment\n  File "C:\\Users\\Ata\\Desktop\\WB\\web2py\\applications\\tidetest\\views\\default/index2.html", line 18, in <module>\n    <![endif]-->\n  File "C:\\Users\\Ata\\Desktop\\WB\\web2py\\gluon\\packages\\dal\\pydal\\objects.py", line 2507, in __getitem__\n    row = self.records[i]\nIndexError: list index out of range\n'
p142
s.